	.cpu cortex-m4
	.arch armv7e-m
	.fpu fpv4-sp-d16
	.eabi_attribute 27, 1
	.eabi_attribute 28, 1
	.eabi_attribute 20, 1
	.eabi_attribute 21, 1
	.eabi_attribute 23, 3
	.eabi_attribute 24, 1
	.eabi_attribute 25, 1
	.eabi_attribute 26, 1
	.eabi_attribute 30, 6
	.eabi_attribute 34, 1
	.eabi_attribute 38, 1
	.eabi_attribute 18, 4
	.file	"motor_dji.c"
	.text
.Ltext0:
	.cfi_sections	.debug_frame
	.file 1 "/home/librgod/zephyr_workspace/motor/drivers/motor/dji/motor_dji.c"
	.global	convert
	.section	.rodata.convert,"a"
	.align	2
	.type	convert, %object
	.size	convert, 96
convert:
	.word	934841508
	.word	1194313739
	.word	1065353216
	.word	1065353216
	.word	1026818048
	.word	1102448048
	.word	954623139
	.word	1175337188
	.word	1065353216
	.word	1065353216
	.word	1026819488
	.word	1102448048
	.word	924210556
	.word	1205467136
	.word	1065353216
	.word	1065353216
	.word	1026819488
	.word	1102448048
	.word	0
	.word	0
	.word	981668463
	.word	1065353216
	.word	981668463
	.word	0
	.section	.text.device_is_ready,"ax",%progbits
	.align	1
	.syntax unified
	.thumb
	.thumb_func
	.type	device_is_ready, %function
device_is_ready:
.LFB25:
	.file 2 "/home/librgod/zephyr_workspace/motor/app/build/zephyr/include/generated/zephyr/syscalls/device.h"
	.loc 2 50 1
	.cfi_startproc
	@ args = 0, pretend = 0, frame = 8
	@ frame_needed = 1, uses_anonymous_args = 0
	push	{r7, lr}
	.cfi_def_cfa_offset 8
	.cfi_offset 7, -8
	.cfi_offset 14, -4
	sub	sp, sp, #8
	.cfi_def_cfa_offset 16
	add	r7, sp, #0
	.cfi_def_cfa_register 7
	str	r0, [r7, #4]
	.loc 2 57 7
	.loc 2 58 9
	ldr	r0, [r7, #4]
	bl	z_impl_device_is_ready
	mov	r3, r0
	.loc 2 59 1
	mov	r0, r3
	adds	r7, r7, #8
	.cfi_def_cfa_offset 8
	mov	sp, r7
	.cfi_def_cfa_register 13
	@ sp needed
	pop	{r7, pc}
	.cfi_endproc
.LFE25:
	.size	device_is_ready, .-device_is_ready
	.section	.text.float_equal,"ax",%progbits
	.align	1
	.syntax unified
	.thumb
	.thumb_func
	.type	float_equal, %function
float_equal:
.LFB32:
	.file 3 "/home/librgod/zephyr_workspace/motor/include/zephyr/drivers/pid.h"
	.loc 3 68 1
	.cfi_startproc
	@ args = 0, pretend = 0, frame = 16
	@ frame_needed = 1, uses_anonymous_args = 0
	@ link register save eliminated.
	push	{r7}
	.cfi_def_cfa_offset 4
	.cfi_offset 7, -4
	sub	sp, sp, #20
	.cfi_def_cfa_offset 24
	add	r7, sp, #0
	.cfi_def_cfa_register 7
	vstr.32	s0, [r7, #4]
	vstr.32	s1, [r7]
	.loc 3 69 9
	vldr.32	s14, [r7, #4]
	vldr.32	s15, [r7]
	vsub.f32	s15, s14, s15
	vstr.32	s15, [r7, #12]
.LBB72:
.LBB73:
	.file 4 "/home/librgod/zephyr-sdk-0.17.0/arm-zephyr-eabi/picolibc/include/machine/math.h"
	.loc 4 183 5
	vldr.32	s15, [r7, #12]
	.syntax unified
@ 183 "/home/librgod/zephyr-sdk-0.17.0/arm-zephyr-eabi/picolibc/include/machine/math.h" 1
	vabs.f32	s15, s15
@ 0 "" 2
	.thumb
	.syntax unified
	vstr.32	s15, [r7, #8]
	.loc 4 184 12
	vldr.32	s15, [r7, #8]
.LBE73:
.LBE72:
	.loc 3 69 22
	vldr.32	s14, .L6
	vcmpe.f32	s15, s14
	vmrs	APSR_nzcv, FPSCR
	ite	mi
	movmi	r3, #1
	movpl	r3, #0
	uxtb	r3, r3
	.loc 3 70 1
	mov	r0, r3
	adds	r7, r7, #20
	.cfi_def_cfa_offset 4
	mov	sp, r7
	.cfi_def_cfa_register 13
	@ sp needed
	ldr	r7, [sp], #4
	.cfi_restore 7
	.cfi_def_cfa_offset 0
	bx	lr
.L7:
	.align	2
.L6:
	.word	953267991
	.cfi_endproc
.LFE32:
	.size	float_equal, .-float_equal
	.global	__aeabi_uldivmod
	.section	.text.pid_calc,"ax",%progbits
	.align	1
	.syntax unified
	.thumb
	.thumb_func
	.type	pid_calc, %function
pid_calc:
.LFB33:
	.loc 3 73 1
	.cfi_startproc
	@ args = 0, pretend = 0, frame = 72
	@ frame_needed = 1, uses_anonymous_args = 0
	push	{r4, r5, r7, lr}
	.cfi_def_cfa_offset 16
	.cfi_offset 4, -16
	.cfi_offset 5, -12
	.cfi_offset 7, -8
	.cfi_offset 14, -4
	sub	sp, sp, #72
	.cfi_def_cfa_offset 88
	add	r7, sp, #0
	.cfi_def_cfa_register 7
	str	r0, [r7, #4]
	.loc 3 74 23
	ldr	r1, [r7, #4]
	ldr	r1, [r1, #28]
	str	r1, [r7, #68]
	.loc 3 75 5
	ldr	r1, [r7, #68]
	cmp	r1, #0
	beq	.L56
	.loc 3 78 27
	ldr	r1, [r7, #68]
	ldr	r1, [r1, #4]
	str	r1, [r7, #64]
	.loc 3 79 10
	ldr	r1, [r7, #4]
	ldr	r1, [r1, #4]
	.loc 3 79 5
	cmp	r1, #0
	beq	.L57
	.loc 3 82 8
	ldr	r1, [r7, #64]
	ldr	r1, [r1]	@ float
	str	r1, [r7, #60]	@ float
	.loc 3 83 8
	ldr	r1, [r7, #64]
	ldr	r1, [r1, #4]	@ float
	str	r1, [r7, #56]	@ float
	.loc 3 84 8
	ldr	r1, [r7, #64]
	ldr	r1, [r1, #8]	@ float
	str	r1, [r7, #52]	@ float
	.loc 3 85 20
	ldr	r1, [r7, #4]
	ldr	r1, [r1]
	.loc 3 85 14
	vldr.32	s14, [r1]
	.loc 3 85 35
	ldr	r1, [r7, #4]
	ldr	r1, [r1, #4]
	.loc 3 85 29
	vldr.32	s15, [r1]
	.loc 3 85 8
	vsub.f32	s15, s14, s15
	vstr.32	s15, [r7, #48]
	.loc 3 86 223
	ldr	r1, [r7, #4]
	ldr	r1, [r1, #32]
	.loc 3 86 217
	ldr	r0, [r1]
	.loc 3 86 244
	ldr	r1, [r7, #4]
	ldr	r1, [r1, #36]
	.loc 3 86 238
	ldr	r1, [r1]
	.loc 3 86 236
	subs	r1, r0, r1
	.loc 3 86 8
	cmn	r1, #85
	bhi	.L12
	.loc 3 86 87 discriminator 1
	ldr	r3, [r7, #4]
	ldr	r3, [r3, #32]
	.loc 3 86 81 discriminator 1
	ldr	r2, [r3]
	.loc 3 86 108 discriminator 1
	ldr	r3, [r7, #4]
	ldr	r3, [r3, #36]
	.loc 3 86 102 discriminator 1
	ldr	r3, [r3]
	.loc 3 86 100 discriminator 1
	subs	r3, r2, r3
	.loc 3 86 122 discriminator 1
	adds	r3, r3, #84
	.loc 3 86 66 discriminator 1
	lsrs	r3, r3, #3
	ldr	r2, .L61
	umull	r2, r3, r2, r3
	lsrs	r3, r3, #1
	.loc 3 86 8 discriminator 1
	vmov	s15, r3	@ int
	vcvt.f32.u32	s15, s15
	b	.L13
.L12:
	.loc 3 86 177 discriminator 2
	ldr	r1, [r7, #4]
	ldr	r1, [r1, #32]
	.loc 3 86 171 discriminator 2
	ldr	r0, [r1]
	.loc 3 86 198 discriminator 2
	ldr	r1, [r7, #4]
	ldr	r1, [r1, #36]
	.loc 3 86 192 discriminator 2
	ldr	r1, [r1]
	.loc 3 86 190 discriminator 2
	subs	r1, r0, r1
	.loc 3 86 159 discriminator 2
	movs	r0, #0
	mov	r2, r1
	mov	r3, r0
	.loc 3 86 212 discriminator 2
	adds	r4, r2, #84
	adc	r5, r3, #0
	.loc 3 86 66 discriminator 2
	mov	r2, #168
	mov	r3, #0
	mov	r0, r4
	mov	r1, r5
	bl	__aeabi_uldivmod
	mov	r2, r0
	mov	r3, r1
	.loc 3 86 146 discriminator 2
	vmov	s15, r2	@ int
	.loc 3 86 8 discriminator 2
	vcvt.f32.u32	s15, s15
.L13:
	.loc 3 86 8 is_stmt 0 discriminator 4
	vstr.32	s15, [r7, #44]
	.loc 3 87 5 is_stmt 1 discriminator 4
	vldr.32	s15, [r7, #44]
	vcmp.f32	s15, #0
	vmrs	APSR_nzcv, FPSCR
	beq	.L58
	.loc 3 90 15
	ldr	r3, [r7, #64]
	ldrb	r3, [r3, #28]	@ zero_extendqisi2
	.loc 3 90 6
	eor	r3, r3, #1
	uxtb	r3, r3
	.loc 3 90 5
	cmp	r3, #0
	beq	.L15
	.loc 3 91 6
	vldr.32	s14, [r7, #56]
	vldr.32	s15, [r7, #56]
	vcmp.f32	s14, s15
	vmrs	APSR_nzcv, FPSCR
	bne	.L16
	.loc 3 91 22 discriminator 1
	vldr.32	s1, .L61+4
	vldr.32	s0, [r7, #56]
	bl	float_equal
	mov	r3, r0
	.loc 3 91 21 discriminator 1
	eor	r3, r3, #1
	uxtb	r3, r3
	.loc 3 91 18 discriminator 1
	cmp	r3, #0
	beq	.L16
	.loc 3 92 8
	ldr	r3, [r7, #4]
	vldr.32	s14, [r3, #16]
	.loc 3 92 31
	vldr.32	s13, [r7, #48]
	vldr.32	s15, [r7, #44]
	vmul.f32	s12, s13, s15
	.loc 3 92 41
	vldr.32	s13, [r7, #56]
	vdiv.f32	s15, s12, s13
	.loc 3 92 23
	vadd.f32	s15, s14, s15
	ldr	r3, [r7, #4]
	vstr.32	s15, [r3, #16]
	.loc 3 93 16
	ldr	r3, [r7, #64]
	vldr.32	s15, [r3, #12]
	.loc 3 93 7
	vcmp.f32	s15, #0
	vmrs	APSR_nzcv, FPSCR
	beq	.L16
	.loc 3 94 9
	ldr	r3, [r7, #4]
	ldr	r3, [r3, #16]	@ float
	str	r3, [r7, #40]	@ float
.LBB74:
.LBB75:
	.loc 4 183 5
	vldr.32	s15, [r7, #40]
	.syntax unified
@ 183 "/home/librgod/zephyr-sdk-0.17.0/arm-zephyr-eabi/picolibc/include/machine/math.h" 1
	vabs.f32	s15, s15
@ 0 "" 2
	.thumb
	.syntax unified
	vstr.32	s15, [r7, #36]
	.loc 4 184 12
	vldr.32	s14, [r7, #36]
.LBE75:
.LBE74:
	.loc 3 94 45
	ldr	r3, [r7, #64]
	vldr.32	s15, [r3, #12]
	.loc 3 94 8
	vcmpe.f32	s14, s15
	vmrs	APSR_nzcv, FPSCR
	ble	.L16
	.loc 3 95 31
	ldr	r3, [r7, #4]
	vldr.32	s15, [r3, #16]
	.loc 3 97 14
	vcmpe.f32	s15, #0
	vmrs	APSR_nzcv, FPSCR
	ble	.L52
	.loc 3 97 14 is_stmt 0 discriminator 1
	ldr	r3, [r7, #64]
	vldr.32	s15, [r3, #12]
	b	.L21
.L52:
	.loc 3 97 25 is_stmt 1 discriminator 2
	ldr	r3, [r7, #64]
	vldr.32	s15, [r3, #12]
	.loc 3 97 14 discriminator 2
	vneg.f32	s15, s15
.L21:
	.loc 3 95 25
	ldr	r3, [r7, #4]
	vstr.32	s15, [r3, #16]
.L16:
	.loc 3 101 6
	vldr.32	s14, [r7, #52]
	vldr.32	s15, [r7, #52]
	vcmp.f32	s14, s15
	vmrs	APSR_nzcv, FPSCR
	bne	.L22
	.loc 3 102 17
	ldr	r3, [r7, #64]
	vldr.32	s14, [r3, #24]
	.loc 3 102 40
	ldr	r3, [r7, #64]
	vldr.32	s15, [r3, #24]
	.loc 3 102 7
	vcmp.f32	s14, s15
	vmrs	APSR_nzcv, FPSCR
	beq	.L23
	.loc 3 104 18
	ldr	r3, [r7, #4]
	ldr	r3, [r3, #8]
	.loc 3 104 12
	vldr.32	s14, [r3]
	.loc 3 104 39
	ldr	r3, [r7, #4]
	ldr	r3, [r3, #12]
	.loc 3 104 33
	vldr.32	s15, [r3]
	.loc 3 104 31
	vsub.f32	s14, s14, s15
	.loc 3 104 9
	vldr.32	s15, [r7, #52]
	vmul.f32	s13, s14, s15
	.loc 3 104 54
	vldr.32	s14, [r7, #44]
	vdiv.f32	s15, s13, s14
	.loc 3 103 24
	ldr	r3, [r7, #4]
	vstr.32	s15, [r3, #20]
	b	.L22
.L23:
	.loc 3 107 14
	ldr	r3, [r7, #64]
	vldr.32	s14, [r3, #24]
	.loc 3 107 32
	ldr	r3, [r7, #4]
	vldr.32	s15, [r3, #20]
	.loc 3 107 26
	vmul.f32	s14, s14, s15
	.loc 3 108 19
	ldr	r3, [r7, #64]
	vldr.32	s15, [r3, #24]
	.loc 3 108 9
	vmov.f32	s13, #1.0e+0
	vsub.f32	s13, s13, s15
	.loc 3 109 20
	ldr	r3, [r7, #4]
	ldr	r3, [r3, #8]
	.loc 3 109 14
	vldr.32	s12, [r3]
	.loc 3 109 41
	ldr	r3, [r7, #4]
	ldr	r3, [r3, #12]
	.loc 3 109 35
	vldr.32	s15, [r3]
	.loc 3 109 33
	vsub.f32	s12, s12, s15
	.loc 3 109 11
	vldr.32	s15, [r7, #52]
	vmul.f32	s11, s12, s15
	.loc 3 109 56
	vldr.32	s12, [r7, #44]
	vdiv.f32	s15, s11, s12
	.loc 3 108 32
	vmul.f32	s15, s13, s15
	.loc 3 107 47
	vadd.f32	s15, s14, s15
	.loc 3 106 24
	ldr	r3, [r7, #4]
	vstr.32	s15, [r3, #20]
.L22:
	.loc 3 115 37
	ldr	r3, [r7, #4]
	vldr.32	s14, [r3, #16]
	.loc 3 115 31
	vldr.32	s15, [r7, #48]
	vadd.f32	s14, s14, s15
	.loc 3 115 58
	ldr	r3, [r7, #4]
	vldr.32	s15, [r3, #20]
	.loc 3 115 52
	vadd.f32	s14, s14, s15
	.loc 3 115 24
	vldr.32	s15, [r7, #60]
	vmul.f32	s14, s14, s15
	.loc 3 116 15
	ldr	r3, [r7, #64]
	vldr.32	s15, [r3, #20]
	.loc 3 115 9
	ldr	r3, [r7, #4]
	ldr	r3, [r3, #40]
	.loc 3 115 74
	vadd.f32	s15, s14, s15
	.loc 3 115 19
	vstr.32	s15, [r3]
	.loc 3 117 15
	ldr	r3, [r7, #64]
	vldr.32	s15, [r3, #16]
	.loc 3 117 6
	vcmp.f32	s15, #0
	vmrs	APSR_nzcv, FPSCR
	beq	.L59
	.loc 3 118 19 discriminator 1
	ldr	r3, [r7, #4]
	ldr	r3, [r3, #40]
	.loc 3 118 7 discriminator 1
	ldr	r3, [r3]	@ float
	str	r3, [r7, #32]	@ float
.LBB76:
.LBB77:
	.loc 4 183 5 discriminator 1
	vldr.32	s15, [r7, #32]
	.syntax unified
@ 183 "/home/librgod/zephyr-sdk-0.17.0/arm-zephyr-eabi/picolibc/include/machine/math.h" 1
	vabs.f32	s15, s15
@ 0 "" 2
	.thumb
	.syntax unified
	vstr.32	s15, [r7, #28]
	.loc 4 184 12 discriminator 1
	vldr.32	s14, [r7, #28]
.LBE77:
.LBE76:
	.loc 3 118 40 discriminator 1
	ldr	r3, [r7, #64]
	vldr.32	s15, [r3, #16]
	.loc 3 117 35 discriminator 1
	vcmpe.f32	s14, s15
	vmrs	APSR_nzcv, FPSCR
	bgt	.L46
	.loc 3 122 3 discriminator 1
	b	.L59
.L46:
	.loc 3 119 28
	ldr	r3, [r7, #4]
	ldr	r3, [r3, #40]
	.loc 3 119 22
	vldr.32	s15, [r3]
	.loc 3 120 14
	vcmpe.f32	s15, #0
	vmrs	APSR_nzcv, FPSCR
	ble	.L53
	.loc 3 120 14 is_stmt 0 discriminator 1
	ldr	r3, [r7, #64]
	vldr.32	s15, [r3, #16]
	b	.L29
.L53:
	.loc 3 120 25 is_stmt 1 discriminator 2
	ldr	r3, [r7, #64]
	vldr.32	s15, [r3, #16]
	.loc 3 120 14 discriminator 2
	vneg.f32	s15, s15
.L29:
	.loc 3 119 10
	ldr	r3, [r7, #4]
	ldr	r3, [r3, #40]
	.loc 3 119 20
	vstr.32	s15, [r3]
	.loc 3 122 3
	b	.L59
.L15:
	.loc 3 124 6
	vldr.32	s14, [r7, #56]
	vldr.32	s15, [r7, #56]
	vcmp.f32	s14, s15
	vmrs	APSR_nzcv, FPSCR
	bne	.L30
	.loc 3 124 22 discriminator 1
	vldr.32	s1, .L61+4
	vldr.32	s0, [r7, #56]
	bl	float_equal
	mov	r3, r0
	.loc 3 124 21 discriminator 1
	eor	r3, r3, #1
	uxtb	r3, r3
	.loc 3 124 18 discriminator 1
	cmp	r3, #0
	beq	.L30
	.loc 3 125 8
	ldr	r3, [r7, #4]
	vldr.32	s14, [r3, #16]
	.loc 3 125 31
	vldr.32	s13, [r7, #48]
	vldr.32	s15, [r7, #44]
	vmul.f32	s12, s13, s15
	.loc 3 125 41
	vldr.32	s13, [r7, #56]
	vdiv.f32	s15, s12, s13
	.loc 3 125 23
	vadd.f32	s15, s14, s15
	ldr	r3, [r7, #4]
	vstr.32	s15, [r3, #16]
	.loc 3 126 16
	ldr	r3, [r7, #64]
	vldr.32	s15, [r3, #12]
	.loc 3 126 7
	vcmp.f32	s15, #0
	vmrs	APSR_nzcv, FPSCR
	beq	.L30
	.loc 3 127 9
	ldr	r3, [r7, #4]
	ldr	r3, [r3, #16]	@ float
	str	r3, [r7, #24]	@ float
.LBB78:
.LBB79:
	.loc 4 183 5
	vldr.32	s15, [r7, #24]
	.syntax unified
@ 183 "/home/librgod/zephyr-sdk-0.17.0/arm-zephyr-eabi/picolibc/include/machine/math.h" 1
	vabs.f32	s15, s15
@ 0 "" 2
	.thumb
	.syntax unified
	vstr.32	s15, [r7, #20]
	.loc 4 184 12
	vldr.32	s14, [r7, #20]
.LBE79:
.LBE78:
	.loc 3 127 45
	ldr	r3, [r7, #64]
	vldr.32	s15, [r3, #12]
	.loc 3 127 8
	vcmpe.f32	s14, s15
	vmrs	APSR_nzcv, FPSCR
	ble	.L30
	.loc 3 128 31
	ldr	r3, [r7, #4]
	vldr.32	s15, [r3, #16]
	.loc 3 130 14
	vcmpe.f32	s15, #0
	vmrs	APSR_nzcv, FPSCR
	ble	.L54
	.loc 3 130 14 is_stmt 0 discriminator 1
	ldr	r3, [r7, #64]
	vldr.32	s15, [r3, #12]
	b	.L35
.L62:
	.align	2
.L61:
	.word	409044505
	.word	0
.L54:
	.loc 3 130 25 is_stmt 1 discriminator 2
	ldr	r3, [r7, #64]
	vldr.32	s15, [r3, #12]
	.loc 3 130 14 discriminator 2
	vneg.f32	s15, s15
.L35:
	.loc 3 128 25
	ldr	r3, [r7, #4]
	vstr.32	s15, [r3, #16]
.L30:
	.loc 3 134 6
	vldr.32	s14, [r7, #52]
	vldr.32	s15, [r7, #52]
	vcmp.f32	s14, s15
	vmrs	APSR_nzcv, FPSCR
	bne	.L36
	.loc 3 135 17
	ldr	r3, [r7, #64]
	vldr.32	s14, [r3, #24]
	.loc 3 135 40
	ldr	r3, [r7, #64]
	vldr.32	s15, [r3, #24]
	.loc 3 135 7
	vcmp.f32	s14, s15
	vmrs	APSR_nzcv, FPSCR
	beq	.L37
	.loc 3 137 18
	ldr	r3, [r7, #4]
	ldr	r3, [r3, #8]
	.loc 3 137 12
	vldr.32	s14, [r3]
	.loc 3 137 39
	ldr	r3, [r7, #4]
	ldr	r3, [r3, #12]
	.loc 3 137 33
	vldr.32	s15, [r3]
	.loc 3 137 31
	vsub.f32	s14, s14, s15
	.loc 3 137 9
	vldr.32	s15, [r7, #52]
	vmul.f32	s13, s14, s15
	.loc 3 137 54
	vldr.32	s14, [r7, #44]
	vdiv.f32	s15, s13, s14
	.loc 3 136 24
	ldr	r3, [r7, #4]
	vstr.32	s15, [r3, #20]
	b	.L36
.L37:
	.loc 3 140 14
	ldr	r3, [r7, #64]
	vldr.32	s14, [r3, #24]
	.loc 3 140 32
	ldr	r3, [r7, #4]
	vldr.32	s15, [r3, #20]
	.loc 3 140 26
	vmul.f32	s14, s14, s15
	.loc 3 141 19
	ldr	r3, [r7, #64]
	vldr.32	s15, [r3, #24]
	.loc 3 141 9
	vmov.f32	s13, #1.0e+0
	vsub.f32	s13, s13, s15
	.loc 3 142 20
	ldr	r3, [r7, #4]
	ldr	r3, [r3, #8]
	.loc 3 142 14
	vldr.32	s12, [r3]
	.loc 3 142 41
	ldr	r3, [r7, #4]
	ldr	r3, [r3, #12]
	.loc 3 142 35
	vldr.32	s15, [r3]
	.loc 3 142 33
	vsub.f32	s12, s12, s15
	.loc 3 142 11
	vldr.32	s15, [r7, #52]
	vmul.f32	s11, s12, s15
	.loc 3 142 56
	vldr.32	s12, [r7, #44]
	vdiv.f32	s15, s11, s12
	.loc 3 141 32
	vmul.f32	s15, s13, s15
	.loc 3 140 47
	vadd.f32	s15, s14, s15
	.loc 3 139 24
	ldr	r3, [r7, #4]
	vstr.32	s15, [r3, #20]
.L36:
	.loc 3 147 37
	ldr	r3, [r7, #4]
	vldr.32	s14, [r3, #16]
	.loc 3 147 31
	vldr.32	s15, [r7, #48]
	vadd.f32	s14, s14, s15
	.loc 3 147 58
	ldr	r3, [r7, #4]
	vldr.32	s15, [r3, #20]
	.loc 3 147 52
	vadd.f32	s14, s14, s15
	.loc 3 147 24
	vldr.32	s15, [r7, #60]
	vmul.f32	s14, s14, s15
	.loc 3 148 15
	ldr	r3, [r7, #64]
	vldr.32	s15, [r3, #20]
	.loc 3 147 9
	ldr	r3, [r7, #4]
	ldr	r3, [r3, #40]
	.loc 3 147 74
	vadd.f32	s15, s14, s15
	.loc 3 147 19
	vstr.32	s15, [r3]
	.loc 3 149 15
	ldr	r3, [r7, #64]
	vldr.32	s15, [r3, #16]
	.loc 3 149 6
	vcmp.f32	s15, #0
	vmrs	APSR_nzcv, FPSCR
	beq	.L60
	.loc 3 150 19 discriminator 1
	ldr	r3, [r7, #4]
	ldr	r3, [r3, #40]
	.loc 3 150 7 discriminator 1
	ldr	r3, [r3]	@ float
	str	r3, [r7, #16]	@ float
.LBB80:
.LBB81:
	.loc 4 183 5 discriminator 1
	vldr.32	s15, [r7, #16]
	.syntax unified
@ 183 "/home/librgod/zephyr-sdk-0.17.0/arm-zephyr-eabi/picolibc/include/machine/math.h" 1
	vabs.f32	s15, s15
@ 0 "" 2
	.thumb
	.syntax unified
	vstr.32	s15, [r7, #12]
	.loc 4 184 12 discriminator 1
	vldr.32	s14, [r7, #12]
.LBE81:
.LBE80:
	.loc 3 150 40 discriminator 1
	ldr	r3, [r7, #64]
	vldr.32	s15, [r3, #16]
	.loc 3 149 35 discriminator 1
	vcmpe.f32	s14, s15
	vmrs	APSR_nzcv, FPSCR
	bgt	.L50
	.loc 3 154 3 discriminator 1
	b	.L60
.L50:
	.loc 3 151 28
	ldr	r3, [r7, #4]
	ldr	r3, [r3, #40]
	.loc 3 151 22
	vldr.32	s15, [r3]
	.loc 3 152 14
	vcmpe.f32	s15, #0
	vmrs	APSR_nzcv, FPSCR
	ble	.L55
	.loc 3 152 14 is_stmt 0 discriminator 1
	ldr	r3, [r7, #64]
	vldr.32	s15, [r3, #16]
	b	.L43
.L55:
	.loc 3 152 25 is_stmt 1 discriminator 2
	ldr	r3, [r7, #64]
	vldr.32	s15, [r3, #16]
	.loc 3 152 14 discriminator 2
	vneg.f32	s15, s15
.L43:
	.loc 3 151 10
	ldr	r3, [r7, #4]
	ldr	r3, [r3, #40]
	.loc 3 151 20
	vstr.32	s15, [r3]
	.loc 3 154 3
	b	.L60
.L56:
	.loc 3 76 3
	nop
	b	.L8
.L57:
	.loc 3 80 3
	nop
	b	.L8
.L58:
	.loc 3 88 3
	nop
	b	.L8
.L59:
	.loc 3 122 3
	nop
	b	.L8
.L60:
	.loc 3 154 3
	nop
.L8:
	.loc 3 156 1
	adds	r7, r7, #72
	.cfi_def_cfa_offset 16
	mov	sp, r7
	.cfi_def_cfa_register 13
	@ sp needed
	pop	{r4, r5, r7, pc}
	.cfi_endproc
.LFE33:
	.size	pid_calc, .-pid_calc
	.section	.text.pid_calc_in,"ax",%progbits
	.align	1
	.syntax unified
	.thumb
	.thumb_func
	.type	pid_calc_in, %function
pid_calc_in:
.LFB34:
	.loc 3 159 1
	.cfi_startproc
	@ args = 0, pretend = 0, frame = 56
	@ frame_needed = 1, uses_anonymous_args = 0
	push	{r7, lr}
	.cfi_def_cfa_offset 8
	.cfi_offset 7, -8
	.cfi_offset 14, -4
	sub	sp, sp, #56
	.cfi_def_cfa_offset 64
	add	r7, sp, #0
	.cfi_def_cfa_register 7
	str	r0, [r7, #12]
	vstr.32	s0, [r7, #8]
	vstr.32	s1, [r7, #4]
	.loc 3 160 23
	ldr	r3, [r7, #12]
	ldr	r3, [r3, #28]
	str	r3, [r7, #48]
	.loc 3 161 5
	ldr	r3, [r7, #48]
	cmp	r3, #0
	bne	.L64
	.loc 3 162 10
	mov	r3, #0
	b	.L65
.L64:
	.loc 3 164 27
	ldr	r3, [r7, #48]
	ldr	r3, [r3, #4]
	str	r3, [r7, #44]
	.loc 3 166 8
	ldr	r3, [r7, #44]
	ldr	r3, [r3]	@ float
	str	r3, [r7, #40]	@ float
	.loc 3 167 8
	ldr	r3, [r7, #44]
	ldr	r3, [r3, #4]	@ float
	str	r3, [r7, #36]	@ float
	.loc 3 168 8
	ldr	r3, [r7, #44]
	ldr	r3, [r3, #8]	@ float
	str	r3, [r7, #32]	@ float
	.loc 3 170 5
	vldr.32	s15, [r7, #4]
	vcmp.f32	s15, #0
	vmrs	APSR_nzcv, FPSCR
	bne	.L66
	.loc 3 171 10
	mov	r3, #0
	b	.L65
.L66:
	.loc 3 174 15
	ldr	r3, [r7, #44]
	ldrb	r3, [r3, #28]	@ zero_extendqisi2
	.loc 3 174 6
	eor	r3, r3, #1
	uxtb	r3, r3
	.loc 3 174 5
	cmp	r3, #0
	beq	.L67
	.loc 3 175 6
	vldr.32	s14, [r7, #36]
	vldr.32	s15, [r7, #36]
	vcmp.f32	s14, s15
	vmrs	APSR_nzcv, FPSCR
	bne	.L68
	.loc 3 175 22 discriminator 1
	vldr.32	s1, .L88
	vldr.32	s0, [r7, #36]
	bl	float_equal
	mov	r3, r0
	.loc 3 175 21 discriminator 1
	eor	r3, r3, #1
	uxtb	r3, r3
	.loc 3 175 18 discriminator 1
	cmp	r3, #0
	beq	.L68
	.loc 3 176 8
	ldr	r3, [r7, #12]
	vldr.32	s14, [r3, #16]
	.loc 3 176 33
	vldr.32	s13, [r7, #8]
	vldr.32	s15, [r7, #4]
	vmul.f32	s12, s13, s15
	.loc 3 176 46
	vldr.32	s13, [r7, #36]
	vdiv.f32	s15, s12, s13
	.loc 3 176 23
	vadd.f32	s15, s14, s15
	ldr	r3, [r7, #12]
	vstr.32	s15, [r3, #16]
	.loc 3 177 16
	ldr	r3, [r7, #44]
	vldr.32	s15, [r3, #12]
	.loc 3 177 7
	vcmp.f32	s15, #0
	vmrs	APSR_nzcv, FPSCR
	beq	.L68
	.loc 3 178 9
	ldr	r3, [r7, #12]
	ldr	r3, [r3, #16]	@ float
	str	r3, [r7, #28]	@ float
.LBB82:
.LBB83:
	.loc 4 183 5
	vldr.32	s15, [r7, #28]
	.syntax unified
@ 183 "/home/librgod/zephyr-sdk-0.17.0/arm-zephyr-eabi/picolibc/include/machine/math.h" 1
	vabs.f32	s15, s15
@ 0 "" 2
	.thumb
	.syntax unified
	vstr.32	s15, [r7, #24]
	.loc 4 184 12
	vldr.32	s14, [r7, #24]
.LBE83:
.LBE82:
	.loc 3 178 45
	ldr	r3, [r7, #44]
	vldr.32	s15, [r3, #12]
	.loc 3 178 8
	vcmpe.f32	s14, s15
	vmrs	APSR_nzcv, FPSCR
	ble	.L68
	.loc 3 179 31
	ldr	r3, [r7, #12]
	vldr.32	s15, [r3, #16]
	.loc 3 181 14
	vcmpe.f32	s15, #0
	vmrs	APSR_nzcv, FPSCR
	ble	.L86
	.loc 3 181 14 is_stmt 0 discriminator 1
	ldr	r3, [r7, #44]
	vldr.32	s15, [r3, #12]
	b	.L73
.L86:
	.loc 3 181 25 is_stmt 1 discriminator 2
	ldr	r3, [r7, #44]
	vldr.32	s15, [r3, #12]
	.loc 3 181 14 discriminator 2
	vneg.f32	s15, s15
.L73:
	.loc 3 179 25
	ldr	r3, [r7, #12]
	vstr.32	s15, [r3, #16]
.L68:
	.loc 3 185 6
	vldr.32	s14, [r7, #32]
	vldr.32	s15, [r7, #32]
	vcmp.f32	s14, s15
	vmrs	APSR_nzcv, FPSCR
	bne	.L74
	.loc 3 186 17
	ldr	r3, [r7, #44]
	vldr.32	s14, [r3, #24]
	.loc 3 186 40
	ldr	r3, [r7, #44]
	vldr.32	s15, [r3, #24]
	.loc 3 186 7
	vcmp.f32	s14, s15
	vmrs	APSR_nzcv, FPSCR
	beq	.L75
	.loc 3 188 18
	ldr	r3, [r7, #12]
	ldr	r3, [r3, #8]
	.loc 3 188 12
	vldr.32	s14, [r3]
	.loc 3 188 39
	ldr	r3, [r7, #12]
	ldr	r3, [r3, #12]
	.loc 3 188 33
	vldr.32	s15, [r3]
	.loc 3 188 31
	vsub.f32	s14, s14, s15
	.loc 3 188 9
	vldr.32	s15, [r7, #32]
	vmul.f32	s13, s14, s15
	.loc 3 188 54
	vldr.32	s14, [r7, #4]
	vdiv.f32	s15, s13, s14
	.loc 3 187 24
	ldr	r3, [r7, #12]
	vstr.32	s15, [r3, #20]
	b	.L74
.L75:
	.loc 3 191 14
	ldr	r3, [r7, #44]
	vldr.32	s14, [r3, #24]
	.loc 3 191 32
	ldr	r3, [r7, #12]
	vldr.32	s15, [r3, #20]
	.loc 3 191 26
	vmul.f32	s14, s14, s15
	.loc 3 192 19
	ldr	r3, [r7, #44]
	vldr.32	s15, [r3, #24]
	.loc 3 192 9
	vmov.f32	s13, #1.0e+0
	vsub.f32	s13, s13, s15
	.loc 3 193 20
	ldr	r3, [r7, #12]
	ldr	r3, [r3, #8]
	.loc 3 193 14
	vldr.32	s12, [r3]
	.loc 3 193 41
	ldr	r3, [r7, #12]
	ldr	r3, [r3, #12]
	.loc 3 193 35
	vldr.32	s15, [r3]
	.loc 3 193 33
	vsub.f32	s12, s12, s15
	.loc 3 193 11
	vldr.32	s15, [r7, #32]
	vmul.f32	s11, s12, s15
	.loc 3 193 56
	vldr.32	s12, [r7, #4]
	vdiv.f32	s15, s11, s12
	.loc 3 192 32
	vmul.f32	s15, s13, s15
	.loc 3 191 47
	vadd.f32	s15, s14, s15
	.loc 3 190 24
	ldr	r3, [r7, #12]
	vstr.32	s15, [r3, #20]
.L74:
	.loc 3 199 27
	ldr	r3, [r7, #12]
	vldr.32	s14, [r3, #16]
	.loc 3 199 21
	vldr.32	s15, [r7, #8]
	vadd.f32	s14, s14, s15
	.loc 3 199 48
	ldr	r3, [r7, #12]
	vldr.32	s15, [r3, #20]
	.loc 3 199 42
	vadd.f32	s14, s14, s15
	.loc 3 199 12
	vldr.32	s15, [r7, #40]
	vmul.f32	s14, s14, s15
	.loc 3 200 17
	ldr	r3, [r7, #44]
	vldr.32	s15, [r3, #20]
	.loc 3 199 7
	vadd.f32	s15, s14, s15
	vstr.32	s15, [r7, #52]
	.loc 3 201 15
	ldr	r3, [r7, #44]
	vldr.32	s15, [r3, #16]
	.loc 3 201 6
	vcmp.f32	s15, #0
	vmrs	APSR_nzcv, FPSCR
	beq	.L76
	ldr	r3, [r7, #52]	@ float
	str	r3, [r7, #20]	@ float
.LBB84:
.LBB85:
	.loc 4 183 5 discriminator 1
	vldr.32	s15, [r7, #20]
	.syntax unified
@ 183 "/home/librgod/zephyr-sdk-0.17.0/arm-zephyr-eabi/picolibc/include/machine/math.h" 1
	vabs.f32	s15, s15
@ 0 "" 2
	.thumb
	.syntax unified
	vstr.32	s15, [r7, #16]
	.loc 4 184 12 discriminator 1
	vldr.32	s14, [r7, #16]
.LBE85:
.LBE84:
	.loc 3 201 59 discriminator 1
	ldr	r3, [r7, #44]
	vldr.32	s15, [r3, #16]
	.loc 3 201 35 discriminator 1
	vcmpe.f32	s14, s15
	vmrs	APSR_nzcv, FPSCR
	ble	.L76
	.loc 3 202 43
	vldr.32	s15, [r7, #52]
	vcmpe.f32	s15, #0
	vmrs	APSR_nzcv, FPSCR
	ble	.L87
	.loc 3 202 43 is_stmt 0 discriminator 1
	ldr	r3, [r7, #44]
	vldr.32	s15, [r3, #16]
	b	.L81
.L87:
	.loc 3 202 54 is_stmt 1 discriminator 2
	ldr	r3, [r7, #44]
	vldr.32	s15, [r3, #16]
	.loc 3 202 43 discriminator 2
	vneg.f32	s15, s15
.L81:
	.loc 3 202 8 discriminator 4
	vstr.32	s15, [r7, #52]
.L76:
	.loc 3 204 10
	ldr	r3, [r7, #52]	@ float
	b	.L65
.L67:
	.loc 3 206 9
	ldr	r3, .L88+4
.L65:
	.loc 3 207 1
	vmov	s15, r3
	vmov.f32	s0, s15
	adds	r7, r7, #56
	.cfi_def_cfa_offset 8
	mov	sp, r7
	.cfi_def_cfa_register 13
	@ sp needed
	pop	{r7, pc}
.L89:
	.align	2
.L88:
	.word	0
	.word	2143289344
	.cfi_endproc
.LFE34:
	.size	pid_calc_in, .-pid_calc_in
	.section	.text.pid_reg_input,"ax",%progbits
	.align	1
	.syntax unified
	.thumb
	.thumb_func
	.type	pid_reg_input, %function
pid_reg_input:
.LFB35:
	.loc 3 210 1
	.cfi_startproc
	@ args = 0, pretend = 0, frame = 16
	@ frame_needed = 1, uses_anonymous_args = 0
	@ link register save eliminated.
	push	{r7}
	.cfi_def_cfa_offset 4
	.cfi_offset 7, -4
	sub	sp, sp, #20
	.cfi_def_cfa_offset 24
	add	r7, sp, #0
	.cfi_def_cfa_register 7
	str	r0, [r7, #12]
	str	r1, [r7, #8]
	str	r2, [r7, #4]
	.loc 3 211 5
	ldr	r3, [r7, #12]
	cmp	r3, #0
	beq	.L93
	.loc 3 214 13
	ldr	r3, [r7, #12]
	ldr	r2, [r7, #8]
	str	r2, [r3, #4]
	.loc 3 215 12
	ldr	r3, [r7, #12]
	ldr	r2, [r7, #4]
	str	r2, [r3]
	b	.L90
.L93:
	.loc 3 212 3
	nop
.L90:
	.loc 3 216 1
	adds	r7, r7, #20
	.cfi_def_cfa_offset 4
	mov	sp, r7
	.cfi_def_cfa_register 13
	@ sp needed
	ldr	r7, [sp], #4
	.cfi_restore 7
	.cfi_def_cfa_offset 0
	bx	lr
	.cfi_endproc
.LFE35:
	.size	pid_reg_input, .-pid_reg_input
	.section	.text.pid_reg_output,"ax",%progbits
	.align	1
	.syntax unified
	.thumb
	.thumb_func
	.type	pid_reg_output, %function
pid_reg_output:
.LFB36:
	.loc 3 219 1
	.cfi_startproc
	@ args = 0, pretend = 0, frame = 8
	@ frame_needed = 1, uses_anonymous_args = 0
	@ link register save eliminated.
	push	{r7}
	.cfi_def_cfa_offset 4
	.cfi_offset 7, -4
	sub	sp, sp, #12
	.cfi_def_cfa_offset 16
	add	r7, sp, #0
	.cfi_def_cfa_register 7
	str	r0, [r7, #4]
	str	r1, [r7]
	.loc 3 220 5
	ldr	r3, [r7, #4]
	cmp	r3, #0
	beq	.L97
	.loc 3 223 15
	ldr	r3, [r7, #4]
	ldr	r2, [r7]
	str	r2, [r3, #40]
	b	.L94
.L97:
	.loc 3 221 3
	nop
.L94:
	.loc 3 224 1
	adds	r7, r7, #12
	.cfi_def_cfa_offset 4
	mov	sp, r7
	.cfi_def_cfa_register 13
	@ sp needed
	ldr	r7, [sp], #4
	.cfi_restore 7
	.cfi_def_cfa_offset 0
	bx	lr
	.cfi_endproc
.LFE36:
	.size	pid_reg_output, .-pid_reg_output
	.section	.text.pid_reg_time,"ax",%progbits
	.align	1
	.syntax unified
	.thumb
	.thumb_func
	.type	pid_reg_time, %function
pid_reg_time:
.LFB37:
	.loc 3 227 1
	.cfi_startproc
	@ args = 0, pretend = 0, frame = 16
	@ frame_needed = 1, uses_anonymous_args = 0
	@ link register save eliminated.
	push	{r7}
	.cfi_def_cfa_offset 4
	.cfi_offset 7, -4
	sub	sp, sp, #20
	.cfi_def_cfa_offset 24
	add	r7, sp, #0
	.cfi_def_cfa_register 7
	str	r0, [r7, #12]
	str	r1, [r7, #8]
	str	r2, [r7, #4]
	.loc 3 228 5
	ldr	r3, [r7, #12]
	cmp	r3, #0
	beq	.L101
	.loc 3 231 18
	ldr	r3, [r7, #12]
	ldr	r2, [r7, #8]
	str	r2, [r3, #32]
	.loc 3 232 18
	ldr	r3, [r7, #12]
	ldr	r2, [r7, #4]
	str	r2, [r3, #36]
	.loc 3 233 21
	ldr	r3, [r7, #12]
	mov	r2, #0
	str	r2, [r3, #16]	@ float
	.loc 3 234 21
	ldr	r3, [r7, #12]
	mov	r2, #0
	str	r2, [r3, #20]	@ float
	b	.L98
.L101:
	.loc 3 229 3
	nop
.L98:
	.loc 3 235 1
	adds	r7, r7, #20
	.cfi_def_cfa_offset 4
	mov	sp, r7
	.cfi_def_cfa_register 13
	@ sp needed
	ldr	r7, [sp], #4
	.cfi_restore 7
	.cfi_def_cfa_offset 0
	bx	lr
	.cfi_endproc
.LFE37:
	.size	pid_reg_time, .-pid_reg_time
	.section	.text.mit_reg_detri_input,"ax",%progbits
	.align	1
	.syntax unified
	.thumb
	.thumb_func
	.type	mit_reg_detri_input, %function
mit_reg_detri_input:
.LFB38:
	.loc 3 238 1
	.cfi_startproc
	@ args = 0, pretend = 0, frame = 16
	@ frame_needed = 1, uses_anonymous_args = 0
	@ link register save eliminated.
	push	{r7}
	.cfi_def_cfa_offset 4
	.cfi_offset 7, -4
	sub	sp, sp, #20
	.cfi_def_cfa_offset 24
	add	r7, sp, #0
	.cfi_def_cfa_register 7
	str	r0, [r7, #12]
	str	r1, [r7, #8]
	str	r2, [r7, #4]
	.loc 3 239 5
	ldr	r3, [r7, #12]
	cmp	r3, #0
	beq	.L105
	.loc 3 242 19
	ldr	r3, [r7, #12]
	ldr	r2, [r7, #8]
	str	r2, [r3, #12]
	.loc 3 243 18
	ldr	r3, [r7, #12]
	ldr	r2, [r7, #4]
	str	r2, [r3, #8]
	b	.L102
.L105:
	.loc 3 240 3
	nop
.L102:
	.loc 3 244 1
	adds	r7, r7, #20
	.cfi_def_cfa_offset 4
	mov	sp, r7
	.cfi_def_cfa_register 13
	@ sp needed
	ldr	r7, [sp], #4
	.cfi_restore 7
	.cfi_def_cfa_offset 0
	bx	lr
	.cfi_endproc
.LFE38:
	.size	mit_reg_detri_input, .-mit_reg_detri_input
	.section	.text.pid_get_params,"ax",%progbits
	.align	1
	.syntax unified
	.thumb
	.thumb_func
	.type	pid_get_params, %function
pid_get_params:
.LFB39:
	.loc 3 247 1
	.cfi_startproc
	@ args = 0, pretend = 0, frame = 16
	@ frame_needed = 1, uses_anonymous_args = 0
	@ link register save eliminated.
	push	{r7}
	.cfi_def_cfa_offset 4
	.cfi_offset 7, -4
	sub	sp, sp, #20
	.cfi_def_cfa_offset 24
	add	r7, sp, #0
	.cfi_def_cfa_register 7
	str	r0, [r7, #4]
	.loc 3 248 23
	ldr	r3, [r7, #4]
	ldr	r3, [r3, #28]
	str	r3, [r7, #12]
	.loc 3 249 5
	ldr	r3, [r7, #12]
	cmp	r3, #0
	bne	.L107
	.loc 3 250 9
	movs	r3, #0
	b	.L108
.L107:
	.loc 3 252 12
	ldr	r3, [r7, #12]
	ldr	r3, [r3, #4]
.L108:
	.loc 3 253 1
	mov	r0, r3
	adds	r7, r7, #20
	.cfi_def_cfa_offset 4
	mov	sp, r7
	.cfi_def_cfa_register 13
	@ sp needed
	ldr	r7, [sp], #4
	.cfi_restore 7
	.cfi_def_cfa_offset 0
	bx	lr
	.cfi_endproc
.LFE39:
	.size	pid_get_params, .-pid_get_params
	.section	.text.arch_k_cycle_get_32,"ax",%progbits
	.align	1
	.syntax unified
	.thumb
	.thumb_func
	.type	arch_k_cycle_get_32, %function
arch_k_cycle_get_32:
.LFB140:
	.file 5 "/home/librgod/zephyr_workspace/zephyr/include/zephyr/arch/arm/misc.h"
	.loc 5 25 1
	.cfi_startproc
	@ args = 0, pretend = 0, frame = 0
	@ frame_needed = 1, uses_anonymous_args = 0
	push	{r7, lr}
	.cfi_def_cfa_offset 8
	.cfi_offset 7, -8
	.cfi_offset 14, -4
	add	r7, sp, #0
	.cfi_def_cfa_register 7
	.loc 5 26 9
	bl	sys_clock_cycle_get_32
	mov	r3, r0
	.loc 5 27 1
	mov	r0, r3
	pop	{r7, pc}
	.cfi_endproc
.LFE140:
	.size	arch_k_cycle_get_32, .-arch_k_cycle_get_32
	.section	.text.k_cycle_get_32,"ax",%progbits
	.align	1
	.syntax unified
	.thumb
	.thumb_func
	.type	k_cycle_get_32, %function
k_cycle_get_32:
.LFB464:
	.file 6 "/home/librgod/zephyr_workspace/zephyr/include/zephyr/kernel.h"
	.loc 6 1956 1
	.cfi_startproc
	@ args = 0, pretend = 0, frame = 0
	@ frame_needed = 1, uses_anonymous_args = 0
	push	{r7, lr}
	.cfi_def_cfa_offset 8
	.cfi_offset 7, -8
	.cfi_offset 14, -4
	add	r7, sp, #0
	.cfi_def_cfa_register 7
	.loc 6 1957 9
	bl	arch_k_cycle_get_32
	mov	r3, r0
	.loc 6 1958 1
	mov	r0, r3
	pop	{r7, pc}
	.cfi_endproc
.LFE464:
	.size	k_cycle_get_32, .-k_cycle_get_32
	.section	.text.k_work_is_pending,"ax",%progbits
	.align	1
	.syntax unified
	.thumb
	.thumb_func
	.type	k_work_is_pending, %function
k_work_is_pending:
.LFB469:
	.loc 6 4227 1
	.cfi_startproc
	@ args = 0, pretend = 0, frame = 8
	@ frame_needed = 1, uses_anonymous_args = 0
	push	{r7, lr}
	.cfi_def_cfa_offset 8
	.cfi_offset 7, -8
	.cfi_offset 14, -4
	sub	sp, sp, #8
	.cfi_def_cfa_offset 16
	add	r7, sp, #0
	.cfi_def_cfa_register 7
	str	r0, [r7, #4]
	.loc 6 4228 9
	ldr	r0, [r7, #4]
	bl	k_work_busy_get
	mov	r3, r0
	.loc 6 4228 31
	cmp	r3, #0
	ite	ne
	movne	r3, #1
	moveq	r3, #0
	uxtb	r3, r3
	.loc 6 4229 1
	mov	r0, r3
	adds	r7, r7, #8
	.cfi_def_cfa_offset 8
	mov	sp, r7
	.cfi_def_cfa_register 13
	@ sp needed
	pop	{r7, pc}
	.cfi_endproc
.LFE469:
	.size	k_work_is_pending, .-k_work_is_pending
	.section	.text.k_work_queue_thread_get,"ax",%progbits
	.align	1
	.syntax unified
	.thumb
	.thumb_func
	.type	k_work_queue_thread_get, %function
k_work_queue_thread_get:
.LFB474:
	.loc 6 4256 1
	.cfi_startproc
	@ args = 0, pretend = 0, frame = 8
	@ frame_needed = 1, uses_anonymous_args = 0
	@ link register save eliminated.
	push	{r7}
	.cfi_def_cfa_offset 4
	.cfi_offset 7, -4
	sub	sp, sp, #12
	.cfi_def_cfa_offset 16
	add	r7, sp, #0
	.cfi_def_cfa_register 7
	str	r0, [r7, #4]
	.loc 6 4257 9
	ldr	r3, [r7, #4]
	.loc 6 4258 1
	mov	r0, r3
	adds	r7, r7, #12
	.cfi_def_cfa_offset 4
	mov	sp, r7
	.cfi_def_cfa_register 13
	@ sp needed
	ldr	r7, [sp], #4
	.cfi_restore 7
	.cfi_def_cfa_offset 0
	bx	lr
	.cfi_endproc
.LFE474:
	.size	k_work_queue_thread_get, .-k_work_queue_thread_get
	.section	.text.k_thread_name_set,"ax",%progbits
	.align	1
	.syntax unified
	.thumb
	.thumb_func
	.type	k_thread_name_set, %function
k_thread_name_set:
.LFB509:
	.file 7 "/home/librgod/zephyr_workspace/motor/app/build/zephyr/include/generated/zephyr/syscalls/kernel.h"
	.loc 7 426 1
	.cfi_startproc
	@ args = 0, pretend = 0, frame = 8
	@ frame_needed = 1, uses_anonymous_args = 0
	push	{r7, lr}
	.cfi_def_cfa_offset 8
	.cfi_offset 7, -8
	.cfi_offset 14, -4
	sub	sp, sp, #8
	.cfi_def_cfa_offset 16
	add	r7, sp, #0
	.cfi_def_cfa_register 7
	str	r0, [r7, #4]
	str	r1, [r7]
	.loc 7 434 7
	.loc 7 435 9
	ldr	r1, [r7]
	ldr	r0, [r7, #4]
	bl	z_impl_k_thread_name_set
	mov	r3, r0
	.loc 7 436 1
	mov	r0, r3
	adds	r7, r7, #8
	.cfi_def_cfa_offset 8
	mov	sp, r7
	.cfi_def_cfa_register 13
	@ sp needed
	pop	{r7, pc}
	.cfi_endproc
.LFE509:
	.size	k_thread_name_set, .-k_thread_name_set
	.section	.text.k_timer_start,"ax",%progbits
	.align	1
	.syntax unified
	.thumb
	.thumb_func
	.type	k_timer_start, %function
k_timer_start:
.LFB511:
	.loc 7 461 1
	.cfi_startproc
	@ args = 8, pretend = 0, frame = 16
	@ frame_needed = 1, uses_anonymous_args = 0
	push	{r7, lr}
	.cfi_def_cfa_offset 8
	.cfi_offset 7, -8
	.cfi_offset 14, -4
	sub	sp, sp, #24
	.cfi_def_cfa_offset 32
	add	r7, sp, #8
	.cfi_def_cfa 7, 24
	str	r0, [r7, #12]
	strd	r2, [r7]
	.loc 7 471 7
	.loc 7 472 2
	ldrd	r2, [r7, #24]
	strd	r2, [sp]
	ldrd	r2, [r7]
	ldr	r0, [r7, #12]
	bl	z_impl_k_timer_start
	.loc 7 473 1
	nop
	adds	r7, r7, #16
	.cfi_def_cfa_offset 8
	mov	sp, r7
	.cfi_def_cfa_register 13
	@ sp needed
	pop	{r7, pc}
	.cfi_endproc
.LFE511:
	.size	k_timer_start, .-k_timer_start
	.section	.text.k_timer_stop,"ax",%progbits
	.align	1
	.syntax unified
	.thumb
	.thumb_func
	.type	k_timer_stop, %function
k_timer_stop:
.LFB512:
	.loc 7 480 1
	.cfi_startproc
	@ args = 0, pretend = 0, frame = 8
	@ frame_needed = 1, uses_anonymous_args = 0
	push	{r7, lr}
	.cfi_def_cfa_offset 8
	.cfi_offset 7, -8
	.cfi_offset 14, -4
	sub	sp, sp, #8
	.cfi_def_cfa_offset 16
	add	r7, sp, #0
	.cfi_def_cfa_register 7
	str	r0, [r7, #4]
	.loc 7 488 7
	.loc 7 489 2
	ldr	r0, [r7, #4]
	bl	z_impl_k_timer_stop
	.loc 7 490 1
	nop
	adds	r7, r7, #8
	.cfi_def_cfa_offset 8
	mov	sp, r7
	.cfi_def_cfa_register 13
	@ sp needed
	pop	{r7, pc}
	.cfi_endproc
.LFE512:
	.size	k_timer_stop, .-k_timer_stop
	.section	.text.z_log_msg_runtime_create,"ax",%progbits
	.align	1
	.syntax unified
	.thumb
	.thumb_func
	.type	z_log_msg_runtime_create, %function
z_log_msg_runtime_create:
.LFB587:
	.file 8 "/home/librgod/zephyr_workspace/zephyr/include/zephyr/logging/log_msg.h"
	.loc 8 707 1
	.cfi_startproc
	@ args = 12, pretend = 0, frame = 24
	@ frame_needed = 1, uses_anonymous_args = 1
	push	{r7, lr}
	.cfi_def_cfa_offset 8
	.cfi_offset 7, -8
	.cfi_offset 14, -4
	sub	sp, sp, #40
	.cfi_def_cfa_offset 48
	add	r7, sp, #16
	.cfi_def_cfa 7, 32
	str	r1, [r7, #8]
	str	r3, [r7, #4]
	mov	r3, r0
	strb	r3, [r7, #15]
	mov	r3, r2
	strb	r3, [r7, #14]
	.loc 8 710 1
	add	r3, r7, #44
	str	r3, [r7, #20]
	.loc 8 711 2
	ldrb	r2, [r7, #14]	@ zero_extendqisi2
	ldrb	r0, [r7, #15]	@ zero_extendqisi2
	ldr	r3, [r7, #20]
	str	r3, [sp, #12]
	ldr	r3, [r7, #40]
	str	r3, [sp, #8]
	ldr	r3, [r7, #36]
	str	r3, [sp, #4]
	ldr	r3, [r7, #32]
	str	r3, [sp]
	ldr	r3, [r7, #4]
	ldr	r1, [r7, #8]
	bl	z_log_msg_runtime_vcreate
	.loc 8 714 1
	nop
	adds	r7, r7, #24
	.cfi_def_cfa_offset 8
	mov	sp, r7
	.cfi_def_cfa_register 13
	@ sp needed
	pop	{r7, pc}
	.cfi_endproc
.LFE587:
	.size	z_log_msg_runtime_create, .-z_log_msg_runtime_create
	.section	.text.z_impl_can_get_transceiver,"ax",%progbits
	.align	1
	.syntax unified
	.thumb
	.thumb_func
	.type	z_impl_can_get_transceiver, %function
z_impl_can_get_transceiver:
.LFB622:
	.file 9 "/home/librgod/zephyr_workspace/zephyr/include/zephyr/drivers/can.h"
	.loc 9 1107 1
	.cfi_startproc
	@ args = 0, pretend = 0, frame = 16
	@ frame_needed = 1, uses_anonymous_args = 0
	@ link register save eliminated.
	push	{r7}
	.cfi_def_cfa_offset 4
	.cfi_offset 7, -4
	sub	sp, sp, #20
	.cfi_def_cfa_offset 24
	add	r7, sp, #0
	.cfi_def_cfa_register 7
	str	r0, [r7, #4]
	.loc 9 1108 34
	ldr	r3, [r7, #4]
	ldr	r3, [r3, #4]
	str	r3, [r7, #12]
	.loc 9 1110 15
	ldr	r3, [r7, #12]
	ldr	r3, [r3]
	.loc 9 1111 1
	mov	r0, r3
	adds	r7, r7, #20
	.cfi_def_cfa_offset 4
	mov	sp, r7
	.cfi_def_cfa_register 13
	@ sp needed
	ldr	r7, [sp], #4
	.cfi_restore 7
	.cfi_def_cfa_offset 0
	bx	lr
	.cfi_endproc
.LFE622:
	.size	z_impl_can_get_transceiver, .-z_impl_can_get_transceiver
	.global	dji_work_queue
	.section	.bss.dji_work_queue,"aw",%nobits
	.align	3
	.type	dji_work_queue, %object
	.size	dji_work_queue, 312
dji_work_queue:
	.space	312
	.global	dji_work_queue_stack
	.section	.noinit."WEST_TOPDIR/motor/drivers/motor/dji/motor_dji.h".0,"aw"
	.align	3
	.type	dji_work_queue_stack, %object
	.size	dji_work_queue_stack, 2048
dji_work_queue_stack:
	.space	2048
	.global	dji_miss_handle
	.section	.data.dji_miss_handle,"aw"
	.align	2
	.type	dji_miss_handle, %object
	.size	dji_miss_handle, 16
dji_miss_handle:
	.space	4
	.word	dji_miss_handler
	.space	8
	.global	dji_init_handle
	.section	.data.dji_init_handle,"aw"
	.align	2
	.type	dji_init_handle, %object
	.size	dji_init_handle, 16
dji_init_handle:
	.space	4
	.word	dji_init_handler
	.space	8
	.global	dji_miss_handle_timer
	.section	._k_timer.static.dji_miss_handle_timer_,"aw"
	.align	3
	.type	dji_miss_handle_timer, %object
	.size	dji_miss_handle_timer, 56
dji_miss_handle_timer:
	.space	8
	.word	z_timer_expiration_handler
	.space	4
	.word	0
	.word	0
	.word	dji_miss_handle_timer+24
	.word	dji_miss_handle_timer+24
	.word	0
	.word	0
	.space	8
	.word	0
	.word	0
	.section	.rodata.motor_api_funcs,"a"
	.align	2
	.type	motor_api_funcs, %object
	.size	motor_api_funcs, 16
motor_api_funcs:
	.word	dji_control
	.word	dji_set
	.word	dji_get
	.space	4
	.global	log_const_motor_dji
	.section	.rodata
	.align	2
.LC0:
	.ascii	"motor_dji\000"
	.section	._log_const.static.log_const_motor_dji_,"a"
	.align	2
	.type	log_const_motor_dji, %object
	.size	log_const_motor_dji, 8
log_const_motor_dji:
	.word	.LC0
	.byte	4
	.space	3
	.section	.data.__log_current_const_data,"aw"
	.align	2
	.type	__log_current_const_data, %object
	.size	__log_current_const_data, 4
__log_current_const_data:
	.word	log_const_motor_dji
	.section	.bss.__log_current_dynamic_data,"aw",%nobits
	.align	2
	.type	__log_current_dynamic_data, %object
	.size	__log_current_dynamic_data, 4
__log_current_dynamic_data:
	.space	4
	.section	.rodata.__log_level,"a"
	.align	2
	.type	__log_level, %object
	.size	__log_level, 4
__log_level:
	.word	4
	.global	motor_devices
	.section	.data.motor_devices,"aw"
	.align	2
	.type	motor_devices, %object
	.size	motor_devices, 24
motor_devices:
	.word	__device_dts_ord_41
	.word	__device_dts_ord_42
	.word	__device_dts_ord_43
	.word	__device_dts_ord_44
	.word	__device_dts_ord_45
	.word	__device_dts_ord_46
	.section	.text.frameID_to_index,"ax",%progbits
	.align	1
	.syntax unified
	.thumb
	.thumb_func
	.type	frameID_to_index, %function
frameID_to_index:
.LFB667:
	.loc 1 54 1
	.cfi_startproc
	@ args = 0, pretend = 0, frame = 8
	@ frame_needed = 1, uses_anonymous_args = 0
	@ link register save eliminated.
	push	{r7}
	.cfi_def_cfa_offset 4
	.cfi_offset 7, -4
	sub	sp, sp, #12
	.cfi_def_cfa_offset 16
	add	r7, sp, #0
	.cfi_def_cfa_register 7
	str	r0, [r7, #4]
	.loc 1 55 5
	ldr	r3, [r7, #4]
	cmp	r3, #512
	bne	.L125
	.loc 1 56 10
	movs	r3, #0
	b	.L126
.L125:
	.loc 1 57 12
	ldr	r3, [r7, #4]
	movw	r2, #511
	cmp	r3, r2
	bne	.L127
	.loc 1 58 10
	movs	r3, #1
	b	.L126
.L127:
	.loc 1 59 12
	ldr	r3, [r7, #4]
	cmp	r3, #510
	bne	.L128
	.loc 1 60 10
	movs	r3, #2
	b	.L126
.L128:
	.loc 1 61 12
	ldr	r3, [r7, #4]
	movw	r2, #766
	cmp	r3, r2
	bne	.L129
	.loc 1 62 10
	movs	r3, #3
	b	.L126
.L129:
	.loc 1 63 12
	ldr	r3, [r7, #4]
	movw	r2, #767
	cmp	r3, r2
	bne	.L130
	.loc 1 64 10
	movs	r3, #4
	b	.L126
.L130:
	.loc 1 65 12
	ldr	r3, [r7, #4]
	cmp	r3, #768
	bne	.L131
	.loc 1 66 10
	movs	r3, #5
	b	.L126
.L131:
	.loc 1 67 12
	ldr	r3, [r7, #4]
	movw	r2, #1022
	cmp	r3, r2
	bne	.L132
	.loc 1 68 10
	movs	r3, #6
	b	.L126
.L132:
	.loc 1 69 12
	ldr	r3, [r7, #4]
	movw	r2, #1278
	cmp	r3, r2
	bne	.L133
	.loc 1 70 10
	movs	r3, #7
	b	.L126
.L133:
	.loc 1 72 9
	mov	r3, #-1
.L126:
	.loc 1 73 1
	mov	r0, r3
	adds	r7, r7, #12
	.cfi_def_cfa_offset 4
	mov	sp, r7
	.cfi_def_cfa_register 13
	@ sp needed
	ldr	r7, [sp], #4
	.cfi_restore 7
	.cfi_def_cfa_offset 0
	bx	lr
	.cfi_endproc
.LFE667:
	.size	frameID_to_index, .-frameID_to_index
	.section	.text.index_to_frameID,"ax",%progbits
	.align	1
	.syntax unified
	.thumb
	.thumb_func
	.type	index_to_frameID, %function
index_to_frameID:
.LFB668:
	.loc 1 76 1
	.cfi_startproc
	@ args = 0, pretend = 0, frame = 8
	@ frame_needed = 1, uses_anonymous_args = 0
	@ link register save eliminated.
	push	{r7}
	.cfi_def_cfa_offset 4
	.cfi_offset 7, -4
	sub	sp, sp, #12
	.cfi_def_cfa_offset 16
	add	r7, sp, #0
	.cfi_def_cfa_register 7
	str	r0, [r7, #4]
	.loc 1 77 5
	ldr	r3, [r7, #4]
	cmp	r3, #0
	bne	.L135
	.loc 1 78 10
	mov	r3, #512
	b	.L136
.L135:
	.loc 1 79 12
	ldr	r3, [r7, #4]
	cmp	r3, #1
	bne	.L137
	.loc 1 80 10
	movw	r3, #511
	b	.L136
.L137:
	.loc 1 81 12
	ldr	r3, [r7, #4]
	cmp	r3, #2
	bne	.L138
	.loc 1 82 10
	mov	r3, #510
	b	.L136
.L138:
	.loc 1 83 12
	ldr	r3, [r7, #4]
	cmp	r3, #3
	bne	.L139
	.loc 1 84 10
	movw	r3, #766
	b	.L136
.L139:
	.loc 1 85 12
	ldr	r3, [r7, #4]
	cmp	r3, #4
	bne	.L140
	.loc 1 86 10
	movw	r3, #767
	b	.L136
.L140:
	.loc 1 87 12
	ldr	r3, [r7, #4]
	cmp	r3, #5
	bne	.L141
	.loc 1 88 10
	mov	r3, #768
	b	.L136
.L141:
	.loc 1 89 12
	ldr	r3, [r7, #4]
	cmp	r3, #6
	bne	.L142
	.loc 1 90 10
	movw	r3, #1022
	b	.L136
.L142:
	.loc 1 91 12
	ldr	r3, [r7, #4]
	cmp	r3, #7
	bne	.L143
	.loc 1 92 10
	movw	r3, #1278
	b	.L136
.L143:
	.loc 1 94 9
	mov	r3, #-1
.L136:
	.loc 1 95 1
	mov	r0, r3
	adds	r7, r7, #12
	.cfi_def_cfa_offset 4
	mov	sp, r7
	.cfi_def_cfa_register 13
	@ sp needed
	ldr	r7, [sp], #4
	.cfi_restore 7
	.cfi_def_cfa_offset 0
	bx	lr
	.cfi_endproc
.LFE668:
	.size	index_to_frameID, .-index_to_frameID
	.section	.text.to16t,"ax",%progbits
	.align	1
	.syntax unified
	.thumb
	.thumb_func
	.type	to16t, %function
to16t:
.LFB669:
	.loc 1 104 1
	.cfi_startproc
	@ args = 0, pretend = 0, frame = 8
	@ frame_needed = 1, uses_anonymous_args = 0
	@ link register save eliminated.
	push	{r7}
	.cfi_def_cfa_offset 4
	.cfi_offset 7, -4
	sub	sp, sp, #12
	.cfi_def_cfa_offset 16
	add	r7, sp, #0
	.cfi_def_cfa_register 7
	vstr.32	s0, [r7, #4]
	.loc 1 106 5
	vldr.32	s15, [r7, #4]
	vldr.32	s14, .L154
	vcmpe.f32	s15, s14
	vmrs	APSR_nzcv, FPSCR
	ble	.L152
	.loc 1 107 9
	movw	r3, #32767
	b	.L147
.L152:
	.loc 1 108 12
	vldr.32	s15, [r7, #4]
	vldr.32	s14, .L154+4
	vcmpe.f32	s15, s14
	vmrs	APSR_nzcv, FPSCR
	bpl	.L153
	.loc 1 109 9
	ldr	r3, .L154+8
	b	.L147
.L153:
	.loc 1 111 10
	vldr.32	s15, [r7, #4]
	vcvt.s32.f32	s15, s15
	vmov	r3, s15	@ int
	sxth	r3, r3
.L147:
	.loc 1 113 1
	mov	r0, r3
	adds	r7, r7, #12
	.cfi_def_cfa_offset 4
	mov	sp, r7
	.cfi_def_cfa_register 13
	@ sp needed
	ldr	r7, [sp], #4
	.cfi_restore 7
	.cfi_def_cfa_offset 0
	bx	lr
.L155:
	.align	2
.L154:
	.word	1191181824
	.word	-956301312
	.word	-32768
	.cfi_endproc
.LFE669:
	.size	to16t, .-to16t
	.global	ctrl_structs
	.section	.data.ctrl_structs,"aw"
	.align	2
	.type	ctrl_structs, %object
	.size	ctrl_structs, 272
ctrl_structs:
	.word	0
	.space	32
	.byte	0
	.space	7
	.ascii	"\377\377\377\377"
	.ascii	"\377\377\377\377"
	.ascii	"\377\377\377\377"
	.ascii	"\377\377\377\377"
	.ascii	"\377\377\377\377"
	.ascii	"\377\377\377\377"
	.ascii	"\377\377\377\377"
	.ascii	"\377\377\377\377"
	.byte	0
	.ascii	"\000\000"
	.space	6
	.space	51
	.word	0
	.space	32
	.byte	0
	.space	7
	.ascii	"\377\377\377\377"
	.ascii	"\377\377\377\377"
	.ascii	"\377\377\377\377"
	.ascii	"\377\377\377\377"
	.ascii	"\377\377\377\377"
	.ascii	"\377\377\377\377"
	.ascii	"\377\377\377\377"
	.ascii	"\377\377\377\377"
	.byte	0
	.ascii	"\000\000"
	.space	6
	.space	51
	.section	.text.motor_id,"ax",%progbits
	.align	1
	.syntax unified
	.thumb
	.thumb_func
	.type	motor_id, %function
motor_id:
.LFB670:
	.loc 1 119 1
	.cfi_startproc
	@ args = 0, pretend = 0, frame = 16
	@ frame_needed = 1, uses_anonymous_args = 0
	@ link register save eliminated.
	push	{r7}
	.cfi_def_cfa_offset 4
	.cfi_offset 7, -4
	sub	sp, sp, #20
	.cfi_def_cfa_offset 24
	add	r7, sp, #0
	.cfi_def_cfa_register 7
	str	r0, [r7, #4]
	.loc 1 120 33
	ldr	r3, [r7, #4]
	ldr	r3, [r3, #4]
	str	r3, [r7, #12]
	.loc 1 121 20
	ldr	r3, [r7, #12]
	ldrb	r3, [r3, #4]	@ zero_extendqisi2
	.loc 1 121 24
	subs	r3, r3, #1
	uxth	r3, r3
	.loc 1 122 1
	mov	r0, r3
	adds	r7, r7, #20
	.cfi_def_cfa_offset 4
	mov	sp, r7
	.cfi_def_cfa_register 13
	@ sp needed
	ldr	r7, [sp], #4
	.cfi_restore 7
	.cfi_def_cfa_offset 0
	bx	lr
	.cfi_endproc
.LFE670:
	.size	motor_id, .-motor_id
	.section	.text.dji_speed_limit,"ax",%progbits
	.align	1
	.global	dji_speed_limit
	.syntax unified
	.thumb
	.thumb_func
	.type	dji_speed_limit, %function
dji_speed_limit:
.LFB671:
	.loc 1 125 1
	.cfi_startproc
	@ args = 0, pretend = 0, frame = 24
	@ frame_needed = 1, uses_anonymous_args = 0
	@ link register save eliminated.
	push	{r7}
	.cfi_def_cfa_offset 4
	.cfi_offset 7, -4
	sub	sp, sp, #28
	.cfi_def_cfa_offset 32
	add	r7, sp, #0
	.cfi_def_cfa_register 7
	str	r0, [r7, #12]
	vstr.32	s0, [r7, #8]
	vstr.32	s1, [r7, #4]
	.loc 1 126 25
	ldr	r3, [r7, #12]
	ldr	r3, [r3, #16]
	str	r3, [r7, #20]
	.loc 1 127 30
	ldr	r3, [r7, #20]
	ldr	r2, [r7, #4]	@ float
	str	r2, [r3, #20]	@ float
	.loc 1 128 30
	ldr	r3, [r7, #20]
	ldr	r2, [r7, #8]	@ float
	str	r2, [r3, #24]	@ float
	.loc 1 129 1
	nop
	adds	r7, r7, #28
	.cfi_def_cfa_offset 4
	mov	sp, r7
	.cfi_def_cfa_register 13
	@ sp needed
	ldr	r7, [sp], #4
	.cfi_restore 7
	.cfi_def_cfa_offset 0
	bx	lr
	.cfi_endproc
.LFE671:
	.size	dji_speed_limit, .-dji_speed_limit
	.section	.text.dji_torque_limit,"ax",%progbits
	.align	1
	.global	dji_torque_limit
	.syntax unified
	.thumb
	.thumb_func
	.type	dji_torque_limit, %function
dji_torque_limit:
.LFB672:
	.loc 1 132 1
	.cfi_startproc
	@ args = 0, pretend = 0, frame = 24
	@ frame_needed = 1, uses_anonymous_args = 0
	@ link register save eliminated.
	push	{r7}
	.cfi_def_cfa_offset 4
	.cfi_offset 7, -4
	sub	sp, sp, #28
	.cfi_def_cfa_offset 32
	add	r7, sp, #0
	.cfi_def_cfa_register 7
	str	r0, [r7, #12]
	vstr.32	s0, [r7, #8]
	vstr.32	s1, [r7, #4]
	.loc 1 133 25
	ldr	r3, [r7, #12]
	ldr	r3, [r3, #16]
	str	r3, [r7, #20]
	.loc 1 134 31
	ldr	r3, [r7, #20]
	ldr	r2, [r7, #4]	@ float
	str	r2, [r3, #28]	@ float
	.loc 1 135 31
	ldr	r3, [r7, #20]
	ldr	r2, [r7, #8]	@ float
	str	r2, [r3, #32]	@ float
	.loc 1 136 1
	nop
	adds	r7, r7, #28
	.cfi_def_cfa_offset 4
	mov	sp, r7
	.cfi_def_cfa_register 13
	@ sp needed
	ldr	r7, [sp], #4
	.cfi_restore 7
	.cfi_def_cfa_offset 0
	bx	lr
	.cfi_endproc
.LFE672:
	.size	dji_torque_limit, .-dji_torque_limit
	.section	.text.dji_set_speed,"ax",%progbits
	.align	1
	.global	dji_set_speed
	.syntax unified
	.thumb
	.thumb_func
	.type	dji_set_speed, %function
dji_set_speed:
.LFB673:
	.loc 1 139 1
	.cfi_startproc
	@ args = 0, pretend = 0, frame = 16
	@ frame_needed = 1, uses_anonymous_args = 0
	@ link register save eliminated.
	push	{r7}
	.cfi_def_cfa_offset 4
	.cfi_offset 7, -4
	sub	sp, sp, #20
	.cfi_def_cfa_offset 24
	add	r7, sp, #0
	.cfi_def_cfa_register 7
	str	r0, [r7, #4]
	vstr.32	s0, [r7]
	.loc 1 140 25
	ldr	r3, [r7, #4]
	ldr	r3, [r3, #16]
	str	r3, [r7, #12]
	.loc 1 142 42
	ldr	r3, [r7, #12]
	vldr.32	s15, [r3, #24]
	.loc 1 142 5
	vldr.32	s14, [r7]
	vcmpe.f32	s14, s15
	vmrs	APSR_nzcv, FPSCR
	ble	.L168
	.loc 1 143 13
	ldr	r3, [r7, #12]
	ldr	r3, [r3, #24]	@ float
	str	r3, [r7]	@ float
	b	.L163
.L168:
	.loc 1 144 49
	ldr	r3, [r7, #12]
	vldr.32	s15, [r3, #20]
	.loc 1 144 12
	vldr.32	s14, [r7]
	vcmpe.f32	s14, s15
	vmrs	APSR_nzcv, FPSCR
	bpl	.L163
	.loc 1 145 13
	ldr	r3, [r7, #12]
	ldr	r3, [r3, #20]	@ float
	str	r3, [r7]	@ float
.L163:
	.loc 1 148 19
	ldr	r3, [r7, #12]
	ldr	r2, [r7]	@ float
	str	r2, [r3, #96]	@ float
	.loc 1 150 9
	movs	r3, #0
	.loc 1 151 1
	mov	r0, r3
	adds	r7, r7, #20
	.cfi_def_cfa_offset 4
	mov	sp, r7
	.cfi_def_cfa_register 13
	@ sp needed
	ldr	r7, [sp], #4
	.cfi_restore 7
	.cfi_def_cfa_offset 0
	bx	lr
	.cfi_endproc
.LFE673:
	.size	dji_set_speed, .-dji_set_speed
	.section	.text.dji_set_angle,"ax",%progbits
	.align	1
	.global	dji_set_angle
	.syntax unified
	.thumb
	.thumb_func
	.type	dji_set_angle, %function
dji_set_angle:
.LFB674:
	.loc 1 154 1
	.cfi_startproc
	@ args = 0, pretend = 0, frame = 16
	@ frame_needed = 1, uses_anonymous_args = 0
	@ link register save eliminated.
	push	{r7}
	.cfi_def_cfa_offset 4
	.cfi_offset 7, -4
	sub	sp, sp, #20
	.cfi_def_cfa_offset 24
	add	r7, sp, #0
	.cfi_def_cfa_register 7
	str	r0, [r7, #4]
	vstr.32	s0, [r7]
	.loc 1 155 25
	ldr	r3, [r7, #4]
	ldr	r3, [r3, #16]
	str	r3, [r7, #12]
	.loc 1 156 21
	ldr	r3, [r7, #12]
	ldr	r2, [r7]	@ float
	str	r2, [r3, #92]	@ float
	.loc 1 157 9
	movs	r3, #0
	.loc 1 158 1
	mov	r0, r3
	adds	r7, r7, #20
	.cfi_def_cfa_offset 4
	mov	sp, r7
	.cfi_def_cfa_register 13
	@ sp needed
	ldr	r7, [sp], #4
	.cfi_restore 7
	.cfi_def_cfa_offset 0
	bx	lr
	.cfi_endproc
.LFE674:
	.size	dji_set_angle, .-dji_set_angle
	.section	.text.dji_set_torque,"ax",%progbits
	.align	1
	.global	dji_set_torque
	.syntax unified
	.thumb
	.thumb_func
	.type	dji_set_torque, %function
dji_set_torque:
.LFB675:
	.loc 1 161 1
	.cfi_startproc
	@ args = 0, pretend = 0, frame = 16
	@ frame_needed = 1, uses_anonymous_args = 0
	@ link register save eliminated.
	push	{r7}
	.cfi_def_cfa_offset 4
	.cfi_offset 7, -4
	sub	sp, sp, #20
	.cfi_def_cfa_offset 24
	add	r7, sp, #0
	.cfi_def_cfa_register 7
	str	r0, [r7, #4]
	vstr.32	s0, [r7]
	.loc 1 162 25
	ldr	r3, [r7, #4]
	ldr	r3, [r3, #16]
	str	r3, [r7, #12]
	.loc 1 164 40
	ldr	r3, [r7, #12]
	vldr.32	s15, [r3, #32]
	.loc 1 164 5
	vldr.32	s14, [r7]
	vcmpe.f32	s14, s15
	vmrs	APSR_nzcv, FPSCR
	ble	.L179
	.loc 1 165 10
	ldr	r3, [r7, #12]
	ldr	r3, [r3, #32]	@ float
	str	r3, [r7]	@ float
	b	.L174
.L179:
	.loc 1 166 47
	ldr	r3, [r7, #12]
	vldr.32	s15, [r3, #28]
	.loc 1 166 12
	vldr.32	s14, [r7]
	vcmpe.f32	s14, s15
	vmrs	APSR_nzcv, FPSCR
	bpl	.L174
	.loc 1 167 10
	ldr	r3, [r7, #12]
	ldr	r3, [r3, #28]	@ float
	str	r3, [r7]	@ float
.L174:
	.loc 1 170 22
	ldr	r3, [r7, #12]
	ldr	r2, [r7]	@ float
	str	r2, [r3, #100]	@ float
	.loc 1 172 9
	movs	r3, #0
	.loc 1 173 1
	mov	r0, r3
	adds	r7, r7, #20
	.cfi_def_cfa_offset 4
	mov	sp, r7
	.cfi_def_cfa_register 13
	@ sp needed
	ldr	r7, [sp], #4
	.cfi_restore 7
	.cfi_def_cfa_offset 0
	bx	lr
	.cfi_endproc
.LFE675:
	.size	dji_set_torque, .-dji_set_torque
	.section	.rodata
	.align	2
.LC1:
	.ascii	"torque\000"
	.align	2
.LC2:
	.ascii	"angle\000"
	.align	2
.LC3:
	.ascii	"speed\000"
	.align	2
.LC4:
	.ascii	"Unsupported motor mode: %d\000"
	.align	2
.LC5:
	.ascii	"No motor mode found for %s\000"
	.section	.text.dji_set_mode,"ax",%progbits
	.align	1
	.global	dji_set_mode
	.syntax unified
	.thumb
	.thumb_func
	.type	dji_set_mode, %function
dji_set_mode:
.LFB676:
	.loc 1 176 1
	.cfi_startproc
	@ args = 0, pretend = 0, frame = 48
	@ frame_needed = 1, uses_anonymous_args = 0
	push	{r7, lr}
	.cfi_def_cfa_offset 8
	.cfi_offset 7, -8
	.cfi_offset 14, -4
	sub	sp, sp, #64
	.cfi_def_cfa_offset 72
	add	r7, sp, #16
	.cfi_def_cfa 7, 56
	str	r0, [r7, #4]
	mov	r3, r1
	strb	r3, [r7, #3]
	.loc 1 177 25
	ldr	r3, [r7, #4]
	ldr	r3, [r3, #16]
	str	r3, [r7, #40]
	.loc 1 178 33
	ldr	r3, [r7, #4]
	ldr	r3, [r3, #4]
	str	r3, [r7, #36]
	.loc 1 181 2
	ldrb	r3, [r7, #3]	@ zero_extendqisi2
	cmp	r3, #5
	beq	.L181
	cmp	r3, #5
	bgt	.L182
	cmp	r3, #3
	beq	.L183
	cmp	r3, #4
	beq	.L184
	b	.L182
.L183:
	.loc 1 183 3
	add	r3, r7, #8
	ldr	r2, .L204
	ldm	r2, {r0, r1}
	str	r0, [r3]
	adds	r3, r3, #4
	strh	r1, [r3]	@ movhi
	adds	r3, r3, #2
	lsrs	r2, r1, #16
	strb	r2, [r3]
	.loc 1 184 3
	b	.L185
.L184:
	.loc 1 186 3
	add	r3, r7, #8
	ldr	r2, .L204+4
	ldm	r2, {r0, r1}
	str	r0, [r3]
	adds	r3, r3, #4
	strh	r1, [r3]	@ movhi
	.loc 1 187 3
	b	.L185
.L181:
	.loc 1 189 3
	add	r3, r7, #8
	ldr	r2, .L204+8
	ldm	r2, {r0, r1}
	str	r0, [r3]
	adds	r3, r3, #4
	strh	r1, [r3]	@ movhi
	.loc 1 190 3
	b	.L185
.L182:
.LBB86:
	.loc 1 192 12
	movs	r3, #4
	.loc 1 192 11
	cmp	r3, #0
	beq	.L200
	.loc 1 192 23 discriminator 3
	movs	r3, #1
	strb	r3, [r7, #27]
	.loc 1 192 8 discriminator 3
	ldrb	r3, [r7, #27]
	eor	r3, r3, #1
	uxtb	r3, r3
	.loc 1 192 7 discriminator 3
	cmp	r3, #0
	bne	.L201
	.loc 1 192 38 discriminator 4
	ldr	r3, .L204+12
	ldr	r1, [r3]
	ldrb	r3, [r7, #3]	@ zero_extendqisi2
	str	r3, [sp, #12]
	ldr	r3, .L204+16
	str	r3, [sp, #8]
	movs	r3, #0
	str	r3, [sp, #4]
	movs	r3, #0
	str	r3, [sp]
	movs	r3, #0
	movs	r2, #1
	movs	r0, #0
	bl	z_log_msg_runtime_create
	.loc 1 192 134 discriminator 4
	movs	r3, #0
	str	r3, [r7, #20]
	b	.L187
.L200:
	.loc 1 192 306
	nop
	b	.L187
.L201:
	.loc 1 192 24
	nop
.L187:
.LBE86:
	.loc 1 193 10
	mvn	r3, #87
	b	.L199
.L185:
	.loc 1 196 27
	ldr	r3, [r7, #40]
	movs	r2, #255
	strb	r2, [r3, #50]
.LBB87:
	.loc 1 198 11
	movs	r3, #0
	str	r3, [r7, #44]
	.loc 1 198 2
	b	.L190
.L194:
	.loc 1 199 28
	ldr	r3, [r7, #36]
	ldr	r2, [r7, #44]
	adds	r2, r2, #16
	ldr	r3, [r3, r2, lsl #2]
	.loc 1 199 31
	ldr	r3, [r3, #28]
	.loc 1 199 6
	cmp	r3, #0
	bne	.L191
	.loc 1 199 48 discriminator 1
	ldrb	r3, [r7, #3]	@ zero_extendqisi2
	cmp	r3, #3
	bne	.L191
	.loc 1 200 29
	ldr	r3, [r7, #44]
	sxtb	r2, r3
	ldr	r3, [r7, #40]
	strb	r2, [r3, #50]
	.loc 1 201 4
	b	.L192
.L191:
	.loc 1 203 38
	ldr	r2, [r7, #44]
	mov	r3, r2
	lsls	r3, r3, #1
	add	r3, r3, r2
	lsls	r3, r3, #2
	adds	r3, r3, #16
	ldr	r2, [r7, #36]
	add	r3, r3, r2
	.loc 1 203 7
	add	r2, r7, #8
	mov	r1, r2
	mov	r0, r3
	bl	strcmp
	mov	r3, r0
	.loc 1 203 6
	cmp	r3, #0
	bne	.L193
	.loc 1 204 34
	ldr	r3, [r7, #36]
	ldr	r2, [r7, #44]
	adds	r2, r2, #16
	ldr	r3, [r3, r2, lsl #2]
	.loc 1 204 4
	mov	r0, r3
	bl	pid_calc
	.loc 1 205 29
	ldr	r3, [r7, #44]
	sxtb	r2, r3
	ldr	r3, [r7, #40]
	strb	r2, [r3, #50]
	.loc 1 206 4
	b	.L192
.L193:
	.loc 1 198 91 discriminator 2
	ldr	r3, [r7, #44]
	adds	r3, r3, #1
	str	r3, [r7, #44]
.L190:
	.loc 1 198 20 discriminator 1
	ldr	r3, [r7, #44]
	cmp	r3, #3
	bls	.L194
.L192:
.LBE87:
	.loc 1 210 10
	ldr	r3, [r7, #40]
	ldrsb	r3, [r3, #50]
	.loc 1 210 5
	cmp	r3, #-1
	bne	.L195
.LBB88:
	.loc 1 211 12
	movs	r3, #4
	.loc 1 211 11
	cmp	r3, #0
	beq	.L202
	.loc 1 211 23 discriminator 3
	movs	r3, #1
	strb	r3, [r7, #35]
	.loc 1 211 8 discriminator 3
	ldrb	r3, [r7, #35]
	eor	r3, r3, #1
	uxtb	r3, r3
	.loc 1 211 7 discriminator 3
	cmp	r3, #0
	bne	.L203
	.loc 1 211 38 discriminator 4
	ldr	r3, .L204+12
	ldr	r1, [r3]
	add	r3, r7, #8
	str	r3, [sp, #12]
	ldr	r3, .L204+20
	str	r3, [sp, #8]
	movs	r3, #0
	str	r3, [sp, #4]
	movs	r3, #0
	str	r3, [sp]
	movs	r3, #0
	movs	r2, #1
	movs	r0, #0
	bl	z_log_msg_runtime_create
	.loc 1 211 138 discriminator 4
	movs	r3, #0
	str	r3, [r7, #28]
	b	.L197
.L202:
	.loc 1 211 306
	nop
	b	.L197
.L203:
	.loc 1 211 24
	nop
.L197:
.LBE88:
	.loc 1 212 10
	mvn	r3, #87
	b	.L199
.L195:
	.loc 1 215 20
	ldr	r3, [r7, #40]
	ldrb	r2, [r7, #3]
	strb	r2, [r3, #36]
	.loc 1 217 9
	movs	r3, #0
.L199:
	.loc 1 218 1 discriminator 1
	mov	r0, r3
	adds	r7, r7, #48
	.cfi_def_cfa_offset 8
	mov	sp, r7
	.cfi_def_cfa_register 13
	@ sp needed
	pop	{r7, pc}
.L205:
	.align	2
.L204:
	.word	.LC1
	.word	.LC2
	.word	.LC3
	.word	__log_current_const_data
	.word	.LC4
	.word	.LC5
	.cfi_endproc
.LFE676:
	.size	dji_set_mode, .-dji_set_mode
	.section	.text.dji_set,"ax",%progbits
	.align	1
	.global	dji_set
	.syntax unified
	.thumb
	.thumb_func
	.type	dji_set, %function
dji_set:
.LFB677:
	.loc 1 221 1
	.cfi_startproc
	@ args = 0, pretend = 0, frame = 24
	@ frame_needed = 1, uses_anonymous_args = 0
	push	{r7, lr}
	.cfi_def_cfa_offset 8
	.cfi_offset 7, -8
	.cfi_offset 14, -4
	sub	sp, sp, #40
	.cfi_def_cfa_offset 48
	add	r7, sp, #16
	.cfi_def_cfa 7, 32
	str	r0, [r7, #4]
	str	r1, [r7]
	.loc 1 222 25
	ldr	r3, [r7, #4]
	ldr	r3, [r3, #16]
	str	r3, [r7, #20]
	.loc 1 224 12
	ldr	r3, [r7]
	ldrb	r3, [r3, #36]	@ zero_extendqisi2
	.loc 1 224 5
	cmp	r3, #3
	bne	.L207
	.loc 1 225 3
	ldr	r3, [r7]
	vldr.32	s15, [r3, #8]
	vmov.f32	s0, s15
	ldr	r0, [r7, #4]
	bl	dji_set_torque
	b	.L208
.L207:
	.loc 1 226 19
	ldr	r3, [r7]
	ldrb	r3, [r3, #36]	@ zero_extendqisi2
	.loc 1 226 12
	cmp	r3, #4
	bne	.L209
	.loc 1 227 3
	ldr	r3, [r7]
	vldr.32	s15, [r3]
	vmov.f32	s0, s15
	ldr	r0, [r7, #4]
	bl	dji_set_angle
	b	.L208
.L209:
	.loc 1 228 19
	ldr	r3, [r7]
	ldrb	r3, [r3, #36]	@ zero_extendqisi2
	.loc 1 228 12
	cmp	r3, #5
	bne	.L210
	.loc 1 229 3
	ldr	r3, [r7]
	vldr.32	s15, [r3, #4]
	vmov.f32	s0, s15
	ldr	r0, [r7, #4]
	bl	dji_set_speed
	b	.L208
.L210:
.LBB89:
	.loc 1 231 12
	movs	r3, #4
	.loc 1 231 11
	cmp	r3, #0
	beq	.L221
	.loc 1 231 23 discriminator 3
	movs	r3, #1
	strb	r3, [r7, #19]
	.loc 1 231 8 discriminator 3
	ldrb	r3, [r7, #19]
	eor	r3, r3, #1
	uxtb	r3, r3
	.loc 1 231 7 discriminator 3
	cmp	r3, #0
	bne	.L222
	.loc 1 231 38 discriminator 4
	ldr	r3, .L223
	ldr	r1, [r3]
	.loc 1 231 125 discriminator 4
	ldr	r3, [r7]
	ldrb	r3, [r3, #36]	@ zero_extendqisi2
	.loc 1 231 38 discriminator 4
	str	r3, [sp, #12]
	ldr	r3, .L223+4
	str	r3, [sp, #8]
	movs	r3, #0
	str	r3, [sp, #4]
	movs	r3, #0
	str	r3, [sp]
	movs	r3, #0
	movs	r2, #1
	movs	r0, #0
	bl	z_log_msg_runtime_create
	.loc 1 231 142 discriminator 4
	movs	r3, #0
	str	r3, [r7, #12]
	b	.L212
.L221:
	.loc 1 231 306
	nop
	b	.L212
.L222:
	.loc 1 231 24
	nop
.L212:
.LBE89:
	.loc 1 232 10
	mvn	r3, #87
	b	.L214
.L208:
	.loc 1 235 2
	ldr	r3, [r7]
	ldrb	r3, [r3, #36]	@ zero_extendqisi2
	mov	r1, r3
	ldr	r0, [r7, #4]
	bl	dji_set_mode
	.loc 1 236 28
	ldr	r3, [r7]
	ldrb	r2, [r3, #36]	@ zero_extendqisi2
	.loc 1 236 20
	ldr	r3, [r7, #20]
	strb	r2, [r3, #36]
	.loc 1 238 25
	ldr	r3, [r7]
	vldr.32	s15, [r3, #20]
	.loc 1 238 5
	vcmpe.f32	s15, #0
	vmrs	APSR_nzcv, FPSCR
	bgt	.L215
	.loc 1 238 55 discriminator 1
	ldr	r3, [r7]
	vldr.32	s15, [r3, #24]
	.loc 1 238 33 discriminator 1
	vcmpe.f32	s15, #0
	vmrs	APSR_nzcv, FPSCR
	ble	.L216
.L215:
	.loc 1 239 3
	ldr	r3, [r7]
	vldr.32	s15, [r3, #24]
	ldr	r3, [r7]
	vldr.32	s14, [r3, #20]
	vmov.f32	s1, s14
	vmov.f32	s0, s15
	ldr	r0, [r7, #4]
	bl	dji_speed_limit
.L216:
	.loc 1 241 26
	ldr	r3, [r7]
	vldr.32	s15, [r3, #28]
	.loc 1 241 5
	vcmpe.f32	s15, #0
	vmrs	APSR_nzcv, FPSCR
	bgt	.L218
	.loc 1 241 57 discriminator 1
	ldr	r3, [r7]
	vldr.32	s15, [r3, #32]
	.loc 1 241 34 discriminator 1
	vcmpe.f32	s15, #0
	vmrs	APSR_nzcv, FPSCR
	ble	.L219
.L218:
	.loc 1 242 3
	ldr	r3, [r7]
	vldr.32	s15, [r3, #32]
	ldr	r3, [r7]
	vldr.32	s14, [r3, #28]
	vmov.f32	s1, s14
	vmov.f32	s0, s15
	ldr	r0, [r7, #4]
	bl	dji_torque_limit
.L219:
	.loc 1 245 9
	movs	r3, #0
.L214:
	.loc 1 246 1
	mov	r0, r3
	adds	r7, r7, #24
	.cfi_def_cfa_offset 8
	mov	sp, r7
	.cfi_def_cfa_register 13
	@ sp needed
	pop	{r7, pc}
.L224:
	.align	2
.L223:
	.word	__log_current_const_data
	.word	.LC4
	.cfi_endproc
.LFE677:
	.size	dji_set, .-dji_set
	.section	.text.dji_control,"ax",%progbits
	.align	1
	.global	dji_control
	.syntax unified
	.thumb
	.thumb_func
	.type	dji_control, %function
dji_control:
.LFB678:
	.loc 1 249 1
	.cfi_startproc
	@ args = 0, pretend = 0, frame = 32
	@ frame_needed = 1, uses_anonymous_args = 0
	push	{r7, lr}
	.cfi_def_cfa_offset 8
	.cfi_offset 7, -8
	.cfi_offset 14, -4
	sub	sp, sp, #32
	.cfi_def_cfa_offset 40
	add	r7, sp, #0
	.cfi_def_cfa_register 7
	str	r0, [r7, #4]
	mov	r3, r1
	strb	r3, [r7, #3]
	.loc 1 250 25
	ldr	r3, [r7, #4]
	ldr	r3, [r3, #16]
	str	r3, [r7, #28]
	.loc 1 251 33
	ldr	r3, [r7, #4]
	ldr	r3, [r3, #4]
	str	r3, [r7, #24]
	.loc 1 254 24
	ldr	r3, [r7, #24]
	ldr	r3, [r3, #8]
	.loc 1 254 11
	str	r3, [r7, #8]
	.loc 1 256 2
	ldrb	r3, [r7, #3]	@ zero_extendqisi2
	cmp	r3, #4
	bhi	.L235
	adr	r2, .L228
	ldr	pc, [r2, r3, lsl #2]
	.p2align 2
.L228:
	.word	.L232+1
	.word	.L231+1
	.word	.L230+1
	.word	.L236+1
	.word	.L227+1
	.p2align 1
.L232:
	.loc 1 258 16
	ldr	r3, [r7, #28]
	movs	r2, #1
	strb	r2, [r3, #48]
	.loc 1 259 3
	b	.L226
.L231:
	.loc 1 261 16
	ldr	r3, [r7, #28]
	movs	r2, #0
	strb	r2, [r3, #48]
	.loc 1 262 3
	b	.L226
.L230:
	.loc 1 264 19
	ldr	r3, [r7, #28]
	movs	r2, #0
	str	r2, [r3, #64]
	.loc 1 265 36
	ldr	r3, [r7, #28]
	ldr	r2, [r3]	@ float
	.loc 1 265 22
	ldr	r3, [r7, #28]
	str	r2, [r3, #80]	@ float
	.loc 1 266 10
	ldr	r3, [r7, #24]
	ldrb	r3, [r3, #87]	@ zero_extendqisi2
	.loc 1 266 6
	cmp	r3, #0
	beq	.L237
	.loc 1 267 13
	movw	r3, #2047
	str	r3, [r7, #8]
	.loc 1 268 16
	movs	r3, #0
	strb	r3, [r7, #13]
	.loc 1 269 14
	movs	r3, #4
	strb	r3, [r7, #12]
	.loc 1 270 32
	ldr	r3, [r7, #24]
	ldr	r3, [r3, #12]
	.loc 1 270 18
	uxtb	r3, r3
	strb	r3, [r7, #16]
	.loc 1 271 32
	ldr	r3, [r7, #24]
	ldr	r3, [r3, #12]
	.loc 1 271 39
	sub	r3, r3, #512
	.loc 1 271 48
	asrs	r3, r3, #8
	.loc 1 271 18
	uxtb	r3, r3
	strb	r3, [r7, #17]
	.loc 1 272 18
	movs	r3, #85
	strb	r3, [r7, #18]
	.loc 1 273 18
	movs	r3, #60
	strb	r3, [r7, #19]
	.loc 1 274 31
	ldr	r3, [r7, #24]
	ldr	r3, [r3]
	.loc 1 274 4
	add	r2, r7, #8
	mov	r1, r2
	mov	r0, r3
	bl	can_send_queued
	.loc 1 276 3
	b	.L237
.L227:
	.loc 1 280 22
	ldr	r3, [r7, #28]
	movs	r2, #0
	strb	r2, [r3, #76]
	.loc 1 281 16
	ldr	r3, [r7, #28]
	movs	r2, #1
	strb	r2, [r3, #48]
	.loc 1 282 10
	ldr	r3, [r7, #24]
	ldrb	r3, [r3, #87]	@ zero_extendqisi2
	.loc 1 282 6
	cmp	r3, #0
	beq	.L238
	.loc 1 283 13
	movw	r3, #2047
	str	r3, [r7, #8]
	.loc 1 284 16
	movs	r3, #0
	strb	r3, [r7, #13]
	.loc 1 285 14
	movs	r3, #4
	strb	r3, [r7, #12]
	.loc 1 286 32
	ldr	r3, [r7, #24]
	ldr	r3, [r3, #12]
	.loc 1 286 18
	uxtb	r3, r3
	strb	r3, [r7, #16]
	.loc 1 287 32
	ldr	r3, [r7, #24]
	ldr	r3, [r3, #12]
	.loc 1 287 39
	sub	r3, r3, #512
	.loc 1 287 48
	asrs	r3, r3, #8
	.loc 1 287 18
	uxtb	r3, r3
	strb	r3, [r7, #17]
	.loc 1 288 18
	movs	r3, #85
	strb	r3, [r7, #18]
	.loc 1 289 18
	movs	r3, #80
	strb	r3, [r7, #19]
	.loc 1 290 31
	ldr	r3, [r7, #24]
	ldr	r3, [r3]
	.loc 1 290 4
	add	r2, r7, #8
	mov	r1, r2
	mov	r0, r3
	bl	can_send_queued
	.loc 1 292 3
	b	.L238
.L236:
	.loc 1 278 3
	nop
	b	.L235
.L237:
	.loc 1 276 3
	nop
	b	.L235
.L238:
	.loc 1 292 3
	nop
.L226:
.L235:
	.loc 1 294 1
	nop
	adds	r7, r7, #32
	.cfi_def_cfa_offset 8
	mov	sp, r7
	.cfi_def_cfa_register 13
	@ sp needed
	pop	{r7, pc}
	.cfi_endproc
.LFE678:
	.size	dji_control, .-dji_control
	.section	.rodata
	.align	2
.LC6:
	.ascii	"mit\000"
	.section	.text.dji_get,"ax",%progbits
	.align	1
	.global	dji_get
	.syntax unified
	.thumb
	.thumb_func
	.type	dji_get, %function
dji_get:
.LFB679:
	.loc 1 297 1
	.cfi_startproc
	@ args = 0, pretend = 0, frame = 16
	@ frame_needed = 1, uses_anonymous_args = 0
	push	{r7, lr}
	.cfi_def_cfa_offset 8
	.cfi_offset 7, -8
	.cfi_offset 14, -4
	sub	sp, sp, #16
	.cfi_def_cfa_offset 24
	add	r7, sp, #0
	.cfi_def_cfa_register 7
	str	r0, [r7, #4]
	str	r1, [r7]
	.loc 1 298 25
	ldr	r3, [r7, #4]
	ldr	r3, [r3, #16]
	str	r3, [r7, #12]
	.loc 1 299 33
	ldr	r3, [r7, #4]
	ldr	r3, [r3, #4]
	str	r3, [r7, #8]
	.loc 1 301 42
	ldr	r3, [r7, #12]
	ldrsb	r3, [r3, #50]
	mov	r2, r3
	.loc 1 301 37
	mov	r3, r2
	lsls	r3, r3, #1
	add	r3, r3, r2
	lsls	r3, r3, #2
	adds	r3, r3, #16
	ldr	r2, [r7, #8]
	add	r3, r3, r2
	.loc 1 301 6
	ldr	r1, .L246
	mov	r0, r3
	bl	strcmp
	mov	r3, r0
	.loc 1 301 5
	cmp	r3, #0
	bne	.L241
	.loc 1 302 16
	ldr	r3, [r7]
	movs	r2, #3
	strb	r2, [r3, #36]
	b	.L242
.L241:
	.loc 1 303 49
	ldr	r3, [r7, #12]
	ldrsb	r3, [r3, #50]
	mov	r2, r3
	.loc 1 303 44
	mov	r3, r2
	lsls	r3, r3, #1
	add	r3, r3, r2
	lsls	r3, r3, #2
	adds	r3, r3, #16
	ldr	r2, [r7, #8]
	add	r3, r3, r2
	.loc 1 303 13
	ldr	r1, .L246+4
	mov	r0, r3
	bl	strcmp
	mov	r3, r0
	.loc 1 303 12
	cmp	r3, #0
	bne	.L243
	.loc 1 304 16
	ldr	r3, [r7]
	movs	r2, #4
	strb	r2, [r3, #36]
	b	.L242
.L243:
	.loc 1 305 49
	ldr	r3, [r7, #12]
	ldrsb	r3, [r3, #50]
	mov	r2, r3
	.loc 1 305 44
	mov	r3, r2
	lsls	r3, r3, #1
	add	r3, r3, r2
	lsls	r3, r3, #2
	adds	r3, r3, #16
	ldr	r2, [r7, #8]
	add	r3, r3, r2
	.loc 1 305 13
	ldr	r1, .L246+8
	mov	r0, r3
	bl	strcmp
	mov	r3, r0
	.loc 1 305 12
	cmp	r3, #0
	bne	.L244
	.loc 1 306 16
	ldr	r3, [r7]
	movs	r2, #5
	strb	r2, [r3, #36]
	b	.L242
.L244:
	.loc 1 307 49
	ldr	r3, [r7, #12]
	ldrsb	r3, [r3, #50]
	mov	r2, r3
	.loc 1 307 44
	mov	r3, r2
	lsls	r3, r3, #1
	add	r3, r3, r2
	lsls	r3, r3, #2
	adds	r3, r3, #16
	ldr	r2, [r7, #8]
	add	r3, r3, r2
	.loc 1 307 13
	ldr	r1, .L246+12
	mov	r0, r3
	bl	strcmp
	mov	r3, r0
	.loc 1 307 12
	cmp	r3, #0
	bne	.L242
	.loc 1 308 16
	ldr	r3, [r7]
	movs	r2, #0
	strb	r2, [r3, #36]
.L242:
	.loc 1 311 17
	ldr	r3, [r7, #12]
	.loc 1 311 2
	movs	r2, #40
	mov	r1, r3
	ldr	r0, [r7]
	bl	memcpy
	.loc 1 313 9
	movs	r3, #0
	.loc 1 314 1
	mov	r0, r3
	adds	r7, r7, #16
	.cfi_def_cfa_offset 8
	mov	sp, r7
	.cfi_def_cfa_register 13
	@ sp needed
	pop	{r7, pc}
.L247:
	.align	2
.L246:
	.word	.LC1
	.word	.LC2
	.word	.LC3
	.word	.LC6
	.cfi_endproc
.LFE679:
	.size	dji_get, .-dji_get
	.section	.rodata
	.align	2
.LC7:
	.ascii	"Conflicting motor id: %d, dev name: %s\000"
	.align	2
.LC8:
	.ascii	"Unsupported motor mode: %s\000"
	.align	2
.LC9:
	.ascii	"Unsupported motor type\000"
	.align	2
.LC10:
	.ascii	"dji_motor_ctrl_thread\000"
	.section	.text.dji_init,"ax",%progbits
	.align	1
	.global	dji_init
	.syntax unified
	.thumb
	.thumb_func
	.type	dji_init, %function
dji_init:
.LFB680:
	.loc 1 317 1
	.cfi_startproc
	@ args = 0, pretend = 0, frame = 56
	@ frame_needed = 1, uses_anonymous_args = 0
	push	{r7, lr}
	.cfi_def_cfa_offset 8
	.cfi_offset 7, -8
	.cfi_offset 14, -4
	sub	sp, sp, #80
	.cfi_def_cfa_offset 88
	add	r7, sp, #24
	.cfi_def_cfa 7, 64
	str	r0, [r7, #4]
	.loc 1 323 5
	ldr	r3, [r7, #4]
	cmp	r3, #0
	beq	.L249
.LBB90:
	.loc 1 324 34
	ldr	r3, [r7, #4]
	ldr	r3, [r3, #4]
	str	r3, [r7, #48]
	.loc 1 325 26
	ldr	r3, [r7, #4]
	ldr	r3, [r3, #16]
	str	r3, [r7, #44]
	.loc 1 326 44
	ldr	r3, [r7, #48]
	ldr	r3, [r3]
	.loc 1 326 21
	mov	r0, r3
	bl	reg_can_dev
	mov	r3, r0
	uxtb	r2, r3
	.loc 1 326 19
	ldr	r3, [r7, #44]
	strb	r2, [r3, #40]
	.loc 1 327 41
	ldr	r3, [r7, #44]
	ldrb	r3, [r3, #40]	@ zero_extendqisi2
	mov	r2, r3
	.loc 1 327 23
	mov	r3, r2
	lsls	r3, r3, #4
	add	r3, r3, r2
	lsls	r3, r3, #3
	ldr	r2, .L282
	add	r2, r2, r3
	.loc 1 327 21
	ldr	r3, [r7, #44]
	str	r2, [r3, #44]
	.loc 1 328 7
	ldr	r3, [r7, #44]
	ldr	r3, [r3, #44]
	.loc 1 328 60
	ldr	r2, [r7, #48]
	ldr	r2, [r2]
	.loc 1 328 30
	str	r2, [r3]
	.loc 1 329 50
	ldr	r3, [r7, #48]
	ldr	r3, [r3, #8]
	.loc 1 329 22
	mov	r0, r3
	bl	frameID_to_index
	mov	r3, r0
	.loc 1 329 11
	strb	r3, [r7, #43]
	.loc 1 330 16
	ldr	r0, [r7, #4]
	bl	motor_id
	mov	r3, r0
	.loc 1 330 11
	strb	r3, [r7, #42]
	.loc 1 331 11
	ldr	r3, [r7, #48]
	ldr	r3, [r3, #96]
	.loc 1 331 6
	cmp	r3, #0
	bne	.L250
	.loc 1 332 8
	ldr	r3, [r7, #44]
	ldr	r2, [r3, #44]
	.loc 1 332 27
	ldrb	r3, [r7, #43]	@ zero_extendqisi2
	add	r3, r3, r2
	ldrb	r3, [r3, #77]	@ zero_extendqisi2
	sxtb	r2, r3
	.loc 1 332 43
	ldrb	r3, [r7, #42]	@ zero_extendqisi2
	movs	r1, #1
	lsl	r3, r1, r3
	.loc 1 332 38
	sxtb	r3, r3
	orrs	r3, r3, r2
	sxtb	r1, r3
	.loc 1 332 8
	ldr	r3, [r7, #44]
	ldr	r2, [r3, #44]
	.loc 1 332 27
	ldrb	r3, [r7, #43]	@ zero_extendqisi2
	.loc 1 332 38
	uxtb	r1, r1
	add	r3, r3, r2
	mov	r2, r1
	strb	r2, [r3, #77]
	b	.L251
.L250:
.LBB91:
	.loc 1 334 25
	ldr	r3, [r7, #48]
	ldr	r3, [r3, #96]
	str	r3, [r7, #36]
	.loc 1 335 46
	ldr	r0, [r7, #36]
	bl	motor_id
	mov	r3, r0
	mov	r2, r3
	.loc 1 335 43
	movs	r3, #1
	lsl	r1, r3, r2
	.loc 1 335 8
	ldr	r3, [r7, #44]
	ldr	r2, [r3, #44]
	.loc 1 335 27
	ldrb	r3, [r7, #43]	@ zero_extendqisi2
	add	r3, r3, r2
	ldrb	r3, [r3, #77]	@ zero_extendqisi2
	sxtb	r2, r3
	.loc 1 335 38
	sxtb	r3, r1
	orrs	r3, r3, r2
	sxtb	r1, r3
	.loc 1 335 8
	ldr	r3, [r7, #44]
	ldr	r2, [r3, #44]
	.loc 1 335 27
	ldrb	r3, [r7, #43]	@ zero_extendqisi2
	.loc 1 335 38
	uxtb	r1, r1
	add	r3, r3, r2
	mov	r2, r1
	strb	r2, [r3, #77]
.L251:
.LBE91:
	.loc 1 337 11
	ldr	r3, [r7, #44]
	ldr	r2, [r3, #44]
	.loc 1 337 32
	ldrb	r3, [r7, #42]	@ zero_extendqisi2
	lsls	r3, r3, #2
	add	r3, r3, r2
	ldr	r3, [r3, #4]
	.loc 1 337 6
	cmp	r3, #0
	beq	.L252
.LBB92:
	.loc 1 338 13
	movs	r3, #4
	.loc 1 338 12
	cmp	r3, #0
	beq	.L276
	.loc 1 338 24 discriminator 3
	movs	r3, #1
	strb	r3, [r7, #35]
	.loc 1 338 9 discriminator 3
	ldrb	r3, [r7, #35]
	eor	r3, r3, #1
	uxtb	r3, r3
	.loc 1 338 8 discriminator 3
	cmp	r3, #0
	bne	.L277
	.loc 1 338 39 discriminator 4
	ldr	r3, .L282+4
	ldr	r1, [r3]
	ldrb	r3, [r7, #42]	@ zero_extendqisi2
	adds	r3, r3, #1
	.loc 1 338 143 discriminator 4
	ldr	r2, [r7, #4]
	ldr	r2, [r2]
	.loc 1 338 39 discriminator 4
	str	r2, [sp, #16]
	str	r3, [sp, #12]
	ldr	r3, .L282+8
	str	r3, [sp, #8]
	movs	r3, #0
	str	r3, [sp, #4]
	movs	r3, #0
	str	r3, [sp]
	movs	r3, #0
	movs	r2, #1
	movs	r0, #0
	bl	z_log_msg_runtime_create
	.loc 1 338 160 discriminator 4
	movs	r3, #0
	str	r3, [r7, #28]
	b	.L252
.L276:
	.loc 1 338 307
	nop
	b	.L252
.L277:
	.loc 1 338 25
	nop
.L252:
.LBE92:
	.loc 1 340 7
	ldr	r3, [r7, #44]
	ldr	r1, [r3, #44]
	.loc 1 340 28
	ldrb	r3, [r7, #42]	@ zero_extendqisi2
	.loc 1 340 46
	ldr	r2, [r7, #48]
	ldr	r2, [r2, #12]
	.loc 1 340 33
	lsls	r3, r3, #2
	add	r3, r3, r1
	str	r2, [r3, #4]
	.loc 1 342 7
	ldr	r3, [r7, #44]
	ldr	r3, [r3, #44]
	.loc 1 342 42
	ldr	r2, .L282+12
	str	r2, [r3, #124]
	.loc 1 344 16
	ldr	r3, [r7, #44]
	movs	r2, #1
	strb	r2, [r3, #48]
.LBB93:
	.loc 1 345 12
	movs	r3, #0
	str	r3, [r7, #52]
	.loc 1 345 3
	b	.L255
.L267:
	.loc 1 347 29
	ldr	r3, [r7, #48]
	ldr	r2, [r7, #52]
	adds	r2, r2, #16
	ldr	r3, [r3, r2, lsl #2]
	.loc 1 347 7
	cmp	r3, #0
	bne	.L256
	.loc 1 348 8
	ldr	r3, [r7, #52]
	cmp	r3, #0
	ble	.L257
	.loc 1 349 45
	ldr	r3, [r7, #52]
	subs	r2, r3, #1
	.loc 1 349 42
	ldr	r3, [r7, #48]
	adds	r2, r2, #16
	ldr	r2, [r3, r2, lsl #2]
	.loc 1 349 6
	ldr	r3, [r7, #44]
	adds	r3, r3, #100
	mov	r1, r3
	mov	r0, r2
	bl	pid_reg_output
.L257:
	.loc 1 352 30
	ldr	r3, [r7, #52]
	sxtb	r2, r3
	ldr	r3, [r7, #44]
	strb	r2, [r3, #50]
	.loc 1 353 5
	b	.L258
.L256:
	.loc 1 355 39
	ldr	r2, [r7, #52]
	mov	r3, r2
	lsls	r3, r3, #1
	add	r3, r3, r2
	lsls	r3, r3, #2
	adds	r3, r3, #16
	ldr	r2, [r7, #48]
	add	r3, r3, r2
	.loc 1 355 8
	ldr	r1, .L282+16
	mov	r0, r3
	bl	strcmp
	mov	r3, r0
	.loc 1 355 7
	cmp	r3, #0
	bne	.L259
	.loc 1 356 40
	ldr	r3, [r7, #48]
	ldr	r2, [r7, #52]
	adds	r2, r2, #16
	ldr	r0, [r3, r2, lsl #2]
	.loc 1 356 5
	ldr	r3, [r7, #44]
	adds	r1, r3, #4
	ldr	r3, [r7, #44]
	adds	r3, r3, #96
	mov	r2, r3
	bl	pid_reg_input
	.loc 1 358 8
	ldr	r3, [r7, #52]
	cmp	r3, #0
	ble	.L260
	.loc 1 359 45
	ldr	r3, [r7, #52]
	subs	r2, r3, #1
	.loc 1 359 42
	ldr	r3, [r7, #48]
	adds	r2, r2, #16
	ldr	r2, [r3, r2, lsl #2]
	.loc 1 359 6
	ldr	r3, [r7, #44]
	adds	r3, r3, #96
	mov	r1, r3
	mov	r0, r2
	bl	pid_reg_output
	b	.L260
.L259:
	.loc 1 362 46
	ldr	r2, [r7, #52]
	mov	r3, r2
	lsls	r3, r3, #1
	add	r3, r3, r2
	lsls	r3, r3, #2
	adds	r3, r3, #16
	ldr	r2, [r7, #48]
	add	r3, r3, r2
	.loc 1 362 15
	ldr	r1, .L282+20
	mov	r0, r3
	bl	strcmp
	mov	r3, r0
	.loc 1 362 14
	cmp	r3, #0
	bne	.L261
	.loc 1 363 40
	ldr	r3, [r7, #48]
	ldr	r2, [r7, #52]
	adds	r2, r2, #16
	ldr	r0, [r3, r2, lsl #2]
	.loc 1 363 5
	ldr	r3, [r7, #44]
	add	r1, r3, #84
	ldr	r3, [r7, #44]
	adds	r3, r3, #88
	mov	r2, r3
	bl	pid_reg_input
	b	.L260
.L261:
	.loc 1 365 46
	ldr	r2, [r7, #52]
	mov	r3, r2
	lsls	r3, r3, #1
	add	r3, r3, r2
	lsls	r3, r3, #2
	adds	r3, r3, #16
	ldr	r2, [r7, #48]
	add	r3, r3, r2
	.loc 1 365 15
	ldr	r1, .L282+24
	mov	r0, r3
	bl	strcmp
	mov	r3, r0
	.loc 1 365 14
	cmp	r3, #0
	bne	.L262
	.loc 1 366 40
	ldr	r3, [r7, #48]
	ldr	r2, [r7, #52]
	adds	r2, r2, #16
	ldr	r0, [r3, r2, lsl #2]
	.loc 1 366 5
	ldr	r3, [r7, #44]
	add	r1, r3, #8
	ldr	r3, [r7, #44]
	adds	r3, r3, #100
	mov	r2, r3
	bl	pid_reg_input
	.loc 1 368 8
	ldr	r3, [r7, #52]
	cmp	r3, #0
	ble	.L260
	.loc 1 369 45
	ldr	r3, [r7, #52]
	subs	r2, r3, #1
	.loc 1 369 42
	ldr	r3, [r7, #48]
	adds	r2, r2, #16
	ldr	r2, [r3, r2, lsl #2]
	.loc 1 369 6
	ldr	r3, [r7, #44]
	adds	r3, r3, #100
	mov	r1, r3
	mov	r0, r2
	bl	pid_reg_output
	b	.L260
.L262:
.LBB94:
	.loc 1 373 14
	movs	r3, #4
	.loc 1 373 13
	cmp	r3, #0
	beq	.L278
	.loc 1 373 25 discriminator 3
	movs	r3, #1
	strb	r3, [r7, #27]
	.loc 1 373 10 discriminator 3
	ldrb	r3, [r7, #27]
	eor	r3, r3, #1
	uxtb	r3, r3
	.loc 1 373 9 discriminator 3
	cmp	r3, #0
	bne	.L279
	.loc 1 373 40 discriminator 4
	ldr	r3, .L282+4
	ldr	r1, [r3]
	.loc 1 373 145 discriminator 4
	ldr	r2, [r7, #52]
	mov	r3, r2
	lsls	r3, r3, #1
	add	r3, r3, r2
	lsls	r3, r3, #2
	adds	r3, r3, #16
	ldr	r2, [r7, #48]
	add	r3, r3, r2
	.loc 1 373 40 discriminator 4
	str	r3, [sp, #12]
	ldr	r3, .L282+28
	str	r3, [sp, #8]
	movs	r3, #0
	str	r3, [sp, #4]
	movs	r3, #0
	str	r3, [sp]
	movs	r3, #0
	movs	r2, #1
	movs	r0, #0
	bl	z_log_msg_runtime_create
	.loc 1 373 159 discriminator 4
	movs	r3, #0
	str	r3, [r7, #20]
	b	.L264
.L278:
	.loc 1 373 308
	nop
	b	.L264
.L279:
	.loc 1 373 26
	nop
.L264:
.LBE94:
	.loc 1 374 12
	mov	r3, #-1
	b	.L266
.L283:
	.align	2
.L282:
	.word	ctrl_structs
	.word	__log_current_const_data
	.word	.LC7
	.word	dji_tx_handler
	.word	.LC3
	.word	.LC2
	.word	.LC1
	.word	.LC8
.L260:
	.loc 1 376 38
	ldr	r3, [r7, #48]
	ldr	r2, [r7, #52]
	adds	r2, r2, #16
	ldr	r0, [r3, r2, lsl #2]
	.loc 1 376 4
	ldr	r3, [r7, #44]
	add	r1, r3, #68
	ldr	r3, [r7, #44]
	adds	r3, r3, #72
	mov	r2, r3
	bl	pid_reg_time
	.loc 1 346 79
	ldr	r3, [r7, #52]
	adds	r3, r3, #1
	str	r3, [r7, #52]
.L255:
	.loc 1 346 10 discriminator 1
	ldr	r3, [r7, #52]
	cmp	r3, #3
	bls	.L267
.L258:
.LBE93:
	.loc 1 379 7
	ldr	r3, [r7, #44]
	ldr	r3, [r3, #44]
	.loc 1 379 32
	ldrb	r2, [r7, #42]	@ zero_extendqisi2
	.loc 1 379 37
	adds	r2, r2, #22
	ldr	r1, [r7, #4]
	str	r1, [r3, r2, lsl #2]
	.loc 1 380 19
	ldr	r3, [r7, #44]
	movs	r2, #0
	str	r2, [r3, #72]
	.loc 1 381 7
	ldr	r3, [r7, #44]
	ldr	r3, [r3, #44]
	.loc 1 381 28
	movs	r2, #0
	strb	r2, [r3, #76]
	.loc 1 382 7
	ldr	r3, [r7, #44]
	ldr	r1, [r3, #44]
	.loc 1 382 39
	ldrb	r2, [r7, #43]	@ zero_extendqisi2
	.loc 1 382 43
	ldrb	r3, [r7, #42]	@ zero_extendqisi2
	and	r3, r3, #3
	.loc 1 382 48
	ldrsb	r0, [r7, #42]
	lsls	r2, r2, #2
	add	r2, r2, r1
	add	r3, r3, r2
	adds	r3, r3, #44
	mov	r2, r0
	strb	r2, [r3]
	.loc 1 383 10
	ldr	r3, [r7, #48]
	ldrb	r3, [r3, #84]	@ zero_extendqisi2
	.loc 1 383 6
	cmp	r3, #0
	beq	.L268
	.loc 1 384 22
	ldr	r3, [r7, #44]
	movs	r2, #1
	strb	r2, [r3, #49]
	b	.L269
.L268:
	.loc 1 385 17
	ldr	r3, [r7, #48]
	ldrb	r3, [r3, #85]	@ zero_extendqisi2
	.loc 1 385 13
	cmp	r3, #0
	beq	.L270
	.loc 1 386 22
	ldr	r3, [r7, #44]
	movs	r2, #0
	strb	r2, [r3, #49]
	b	.L269
.L270:
	.loc 1 387 17
	ldr	r3, [r7, #48]
	ldrb	r3, [r3, #86]	@ zero_extendqisi2
	.loc 1 387 13
	cmp	r3, #0
	beq	.L271
	.loc 1 388 22
	ldr	r3, [r7, #44]
	movs	r2, #2
	strb	r2, [r3, #49]
	b	.L269
.L271:
	.loc 1 389 17
	ldr	r3, [r7, #48]
	ldrb	r3, [r3, #87]	@ zero_extendqisi2
	.loc 1 389 13
	cmp	r3, #0
	beq	.L272
	.loc 1 390 22
	ldr	r3, [r7, #44]
	movs	r2, #3
	strb	r2, [r3, #49]
	b	.L269
.L272:
.LBB95:
	.loc 1 392 13
	movs	r3, #4
	.loc 1 392 12
	cmp	r3, #0
	beq	.L280
	.loc 1 392 24 discriminator 3
	movs	r3, #1
	strb	r3, [r7, #19]
	.loc 1 392 9 discriminator 3
	ldrb	r3, [r7, #19]
	eor	r3, r3, #1
	uxtb	r3, r3
	.loc 1 392 8 discriminator 3
	cmp	r3, #0
	bne	.L281
	.loc 1 392 39 discriminator 4
	ldr	r3, .L284
	ldr	r1, [r3]
	ldr	r3, .L284+4
	str	r3, [sp, #8]
	movs	r3, #0
	str	r3, [sp, #4]
	movs	r3, #0
	str	r3, [sp]
	movs	r3, #0
	movs	r2, #1
	movs	r0, #0
	bl	z_log_msg_runtime_create
	.loc 1 392 125 discriminator 4
	movs	r3, #0
	str	r3, [r7, #12]
	b	.L269
.L280:
	.loc 1 392 307
	nop
	b	.L269
.L281:
	.loc 1 392 25
	nop
.L269:
.LBE95:
	.loc 1 395 35
	ldr	r3, [r7, #48]
	ldr	r3, [r3]
	.loc 1 395 8
	mov	r0, r3
	bl	device_is_ready
	mov	r3, r0
	.loc 1 395 7
	eor	r3, r3, #1
	uxtb	r3, r3
	.loc 1 395 6
	cmp	r3, #0
	beq	.L275
	.loc 1 396 11
	mov	r3, #-1
	b	.L266
.L275:
	.loc 1 398 28
	ldr	r3, .L284+8
	ldr	r3, [r3, #32]
	.loc 1 398 6
	cmp	r3, #0
	bne	.L249
.LBB96:
	.loc 1 399 4
	ldr	r0, .L284+12
	bl	k_work_queue_init
	.loc 1 400 21
	ldr	r0, .L284+12
	bl	k_work_queue_thread_get
	str	r0, [r7, #8]
	.loc 1 401 4
	ldr	r1, .L284+16
	ldr	r0, [r7, #8]
	bl	k_thread_name_set
	.loc 1 402 4
	movs	r2, #0
	ldr	r1, .L284+20
	ldr	r0, .L284+8
	bl	k_timer_init
	.loc 1 403 57
	mov	r0, #1000
	mov	r1, #0
	.loc 1 403 94
	mov	r2, #40
	mov	r3, #0
	.loc 1 403 4
	strd	r2, [sp]
	mov	r2, r0
	mov	r3, r1
	ldr	r0, .L284+8
	bl	k_timer_start
.L249:
.LBE96:
.LBE90:
	.loc 1 406 9
	movs	r3, #0
.L266:
	.loc 1 407 1
	mov	r0, r3
	adds	r7, r7, #56
	.cfi_def_cfa_offset 8
	mov	sp, r7
	.cfi_def_cfa_register 13
	@ sp needed
	pop	{r7, pc}
.L285:
	.align	2
.L284:
	.word	__log_current_const_data
	.word	.LC9
	.word	dji_miss_handle_timer
	.word	dji_work_queue
	.word	.LC10
	.word	dji_init_isr_handler
	.cfi_endproc
.LFE680:
	.size	dji_init, .-dji_init
	.section	.rodata
	.align	2
.LC11:
	.ascii	"Motor \"%s\" on canbus \"%s\" is responding again.\000"
	.section	.text.can_rx_callback,"ax",%progbits
	.align	1
	.global	can_rx_callback
	.syntax unified
	.thumb
	.thumb_func
	.type	can_rx_callback, %function
can_rx_callback:
.LFB681:
	.loc 1 410 1
	.cfi_startproc
	@ args = 0, pretend = 0, frame = 80
	@ frame_needed = 1, uses_anonymous_args = 0
	push	{r4, r7, lr}
	.cfi_def_cfa_offset 12
	.cfi_offset 4, -12
	.cfi_offset 7, -8
	.cfi_offset 14, -4
	sub	sp, sp, #108
	.cfi_def_cfa_offset 120
	add	r7, sp, #24
	.cfi_def_cfa 7, 96
	str	r0, [r7, #12]
	str	r1, [r7, #8]
	str	r2, [r7, #4]
	.loc 1 411 23
	bl	k_cycle_get_32
	str	r0, [r7, #64]
	.loc 1 412 17
	ldr	r3, [r7, #4]
	str	r3, [r7, #60]
	.loc 1 413 19
	ldr	r3, [r7, #8]
	add	r4, r7, #16
	ldm	r3, {r0, r1, r2, r3}
	stm	r4, {r0, r1, r2, r3}
	.loc 1 415 25
	ldr	r3, [r7, #60]
	ldr	r3, [r3, #16]
	str	r3, [r7, #56]
	.loc 1 416 33
	ldr	r3, [r7, #60]
	ldr	r3, [r3, #4]
	str	r3, [r7, #52]
	.loc 1 417 16
	ldr	r0, [r7, #60]
	bl	motor_id
	mov	r3, r0
	strh	r3, [r7, #50]	@ movhi
	.loc 1 419 5
	ldr	r3, [r7, #56]
	cmp	r3, #0
	beq	.L306
	.loc 1 423 10
	ldr	r3, [r7, #56]
	ldrsb	r3, [r3, #76]
	.loc 1 423 5
	cmp	r3, #3
	ble	.L289
.LBB97:
	.loc 1 424 22
	ldr	r3, [r7, #56]
	movs	r2, #0
	strb	r2, [r3, #76]
	.loc 1 425 16
	ldr	r3, [r7, #56]
	movs	r2, #1
	strb	r2, [r3, #48]
	.loc 1 426 34
	ldr	r3, [r7, #60]
	ldr	r3, [r3, #4]
	str	r3, [r7, #44]
	.loc 1 428 55
	ldr	r3, [r7, #44]
	ldr	r3, [r3, #8]
	.loc 1 428 21
	mov	r0, r3
	bl	frameID_to_index
	mov	r3, r0
	.loc 1 428 10
	strb	r3, [r7, #43]
	.loc 1 429 16
	ldr	r3, [r7, #44]
	ldr	r3, [r3, #96]
	.loc 1 429 6
	cmp	r3, #0
	beq	.L290
	.loc 1 430 64
	ldr	r3, [r7, #44]
	ldr	r3, [r3, #96]
	.loc 1 430 46
	mov	r0, r3
	bl	motor_id
	mov	r3, r0
	mov	r2, r3
	.loc 1 430 43
	movs	r3, #1
	lsl	r1, r3, r2
	.loc 1 430 8
	ldr	r3, [r7, #56]
	ldr	r2, [r3, #44]
	.loc 1 430 27
	ldrsb	r3, [r7, #43]
	add	r3, r3, r2
	ldrb	r3, [r3, #77]	@ zero_extendqisi2
	sxtb	r2, r3
	.loc 1 430 38
	sxtb	r3, r1
	orrs	r3, r3, r2
	sxtb	r1, r3
	.loc 1 430 8
	ldr	r3, [r7, #56]
	ldr	r2, [r3, #44]
	.loc 1 430 27
	ldrsb	r3, [r7, #43]
	.loc 1 430 38
	uxtb	r1, r1
	add	r3, r3, r2
	mov	r2, r1
	strb	r2, [r3, #77]
	b	.L291
.L290:
	.loc 1 432 8
	ldr	r3, [r7, #56]
	ldr	r2, [r3, #44]
	.loc 1 432 27
	ldrsb	r3, [r7, #43]
	add	r3, r3, r2
	ldrb	r3, [r3, #77]	@ zero_extendqisi2
	sxtb	r2, r3
	.loc 1 432 43
	ldrh	r3, [r7, #50]
	movs	r1, #1
	lsl	r3, r1, r3
	.loc 1 432 38
	sxtb	r3, r3
	orrs	r3, r3, r2
	sxtb	r1, r3
	.loc 1 432 8
	ldr	r3, [r7, #56]
	ldr	r2, [r3, #44]
	.loc 1 432 27
	ldrsb	r3, [r7, #43]
	.loc 1 432 38
	uxtb	r1, r1
	add	r3, r3, r2
	mov	r2, r1
	strb	r2, [r3, #77]
.L291:
.LBB98:
	.loc 1 434 12
	movs	r3, #4
	.loc 1 434 11
	cmp	r3, #0
	beq	.L307
	.loc 1 434 23 discriminator 3
	movs	r3, #1
	strb	r3, [r7, #42]
	.loc 1 434 8 discriminator 3
	ldrb	r3, [r7, #42]
	eor	r3, r3, #1
	uxtb	r3, r3
	.loc 1 434 7 discriminator 3
	cmp	r3, #0
	bne	.L308
	.loc 1 434 38 discriminator 4
	ldr	r3, .L311
	ldr	r1, [r3]
	ldr	r3, [r7, #60]
	ldr	r3, [r3]
	.loc 1 434 171 discriminator 4
	ldr	r2, [r7, #44]
	ldr	r2, [r2]
	.loc 1 434 175 discriminator 4
	ldr	r2, [r2]
	.loc 1 434 38 discriminator 4
	str	r2, [sp, #16]
	str	r3, [sp, #12]
	ldr	r3, .L311+4
	str	r3, [sp, #8]
	movs	r3, #0
	str	r3, [sp, #4]
	movs	r3, #0
	str	r3, [sp]
	movs	r3, #0
	movs	r2, #1
	movs	r0, #0
	bl	z_log_msg_runtime_create
	.loc 1 434 192 discriminator 4
	movs	r3, #0
	str	r3, [r7, #36]
	b	.L295
.L289:
.LBE98:
.LBE97:
	.loc 1 436 17
	ldr	r3, [r7, #56]
	ldrsb	r3, [r3, #76]
	.loc 1 436 12
	cmp	r3, #0
	ble	.L295
	.loc 1 437 7
	ldr	r3, [r7, #56]
	ldrsb	r3, [r3, #76]
	.loc 1 437 21
	uxtb	r3, r3
	subs	r3, r3, #1
	uxtb	r3, r3
	sxtb	r2, r3
	ldr	r3, [r7, #56]
	strb	r2, [r3, #76]
	b	.L295
.L307:
.LBB100:
.LBB99:
	.loc 1 434 306
	nop
	b	.L295
.L308:
	.loc 1 434 24
	nop
.L295:
.LBE99:
.LBE100:
	.loc 1 442 28
	ldr	r3, [r7, #56]
	ldrh	r2, [r3, #52]
	.loc 1 442 22
	ldr	r3, [r7, #56]
	strh	r2, [r3, #54]	@ movhi
	.loc 1 443 34
	ldrb	r3, [r7, #24]	@ zero_extendqisi2
	.loc 1 443 38
	lsls	r3, r3, #8
	uxth	r3, r3
	.loc 1 443 59
	ldrb	r2, [r7, #25]	@ zero_extendqisi2
	.loc 1 443 44
	add	r3, r3, r2
	uxth	r2, r3
	.loc 1 443 17
	ldr	r3, [r7, #56]
	strh	r2, [r3, #52]	@ movhi
	.loc 1 444 18
	ldr	r3, [r7, #56]
	ldrh	r3, [r3, #52]
	mov	r2, r3
	.loc 1 444 35
	ldr	r3, [r7, #56]
	ldrh	r3, [r3, #54]
	.loc 1 444 6
	subs	r3, r2, r3
	str	r3, [r7, #72]
	.loc 1 445 10
	ldr	r3, [r7, #56]
	ldrh	r3, [r3, #52]
	.loc 1 445 5
	cmp	r3, #2048
	bcs	.L296
	.loc 1 445 35 discriminator 1
	ldr	r3, [r7, #56]
	ldrh	r3, [r3, #54]
	.loc 1 445 28 discriminator 1
	cmp	r3, #6144
	bls	.L296
	.loc 1 446 9
	ldr	r3, [r7, #72]
	add	r3, r3, #8192
	str	r3, [r7, #72]
	b	.L297
.L296:
	.loc 1 447 17
	ldr	r3, [r7, #56]
	ldrh	r3, [r3, #52]
	.loc 1 447 12
	cmp	r3, #6144
	bls	.L297
	.loc 1 447 42 discriminator 1
	ldr	r3, [r7, #56]
	ldrh	r3, [r3, #54]
	.loc 1 447 35 discriminator 1
	cmp	r3, #2048
	bcs	.L297
	.loc 1 448 9
	ldr	r3, [r7, #72]
	sub	r3, r3, #8192
	str	r3, [r7, #72]
.L297:
	.loc 1 450 6
	ldr	r3, [r7, #56]
	ldr	r2, [r3, #64]
	.loc 1 450 18
	ldr	r3, [r7, #72]
	add	r2, r2, r3
	ldr	r3, [r7, #56]
	str	r2, [r3, #64]
	.loc 1 451 32
	ldrb	r3, [r7, #26]	@ zero_extendqisi2
	.loc 1 451 36
	lsls	r3, r3, #8
	uxth	r3, r3
	.loc 1 451 57
	ldrb	r2, [r7, #27]	@ zero_extendqisi2
	.loc 1 451 42
	add	r3, r3, r2
	uxth	r3, r3
	sxth	r2, r3
	.loc 1 451 15
	ldr	r3, [r7, #56]
	strh	r2, [r3, #58]	@ movhi
	.loc 1 452 36
	ldrb	r3, [r7, #28]	@ zero_extendqisi2
	.loc 1 452 40
	lsls	r3, r3, #8
	uxth	r3, r3
	.loc 1 452 61
	ldrb	r2, [r7, #29]	@ zero_extendqisi2
	.loc 1 452 46
	add	r3, r3, r2
	uxth	r3, r3
	sxth	r2, r3
	.loc 1 452 19
	ldr	r3, [r7, #56]
	strh	r2, [r3, #56]	@ movhi
	.loc 1 453 31
	ldrb	r3, [r7, #30]	@ zero_extendqisi2
	sxtb	r2, r3
	.loc 1 453 16
	ldr	r3, [r7, #56]
	strb	r2, [r3, #60]
	.loc 1 454 6
	ldr	r3, [r7, #56]
	ldr	r3, [r3, #44]
	.loc 1 454 19
	ldrb	r3, [r3, #76]	@ zero_extendqisi2
	sxtb	r2, r3
	.loc 1 454 32
	ldrh	r3, [r7, #50]
	movs	r1, #1
	lsl	r3, r1, r3
	.loc 1 454 27
	sxtb	r3, r3
	orrs	r3, r3, r2
	sxtb	r2, r3
	.loc 1 454 6
	ldr	r3, [r7, #56]
	ldr	r3, [r3, #44]
	.loc 1 454 27
	uxtb	r2, r2
	strb	r2, [r3, #76]
	.loc 1 455 25
	ldr	r3, [r7, #56]
	ldr	r3, [r3, #68]
	.loc 1 455 61
	cmp	r3, #0
	bne	.L298
	.loc 1 455 61 is_stmt 0 discriminator 1
	ldr	r3, [r7, #64]
	subs	r3, r3, #1
	b	.L299
.L298:
	.loc 1 455 61 discriminator 2
	ldr	r3, [r7, #56]
	ldr	r3, [r3, #68]
.L299:
	.loc 1 455 18 is_stmt 1 discriminator 4
	ldr	r2, [r7, #56]
	str	r3, [r2, #72]
	.loc 1 456 18 discriminator 4
	ldr	r3, [r7, #56]
	ldr	r2, [r7, #64]
	str	r2, [r3, #68]
	.loc 1 457 19 discriminator 4
	ldr	r3, [r7, #56]
	movs	r2, #0
	strb	r2, [r3, #108]
	.loc 1 459 9 discriminator 4
	ldr	r3, [r7, #52]
	ldr	r3, [r3, #96]
	.loc 1 459 5 discriminator 4
	cmp	r3, #0
	bne	.L309
	.loc 1 463 10
	movs	r3, #0
	strb	r3, [r7, #71]
.LBB101:
	.loc 1 464 11
	movs	r3, #0
	str	r3, [r7, #76]
	.loc 1 464 2
	b	.L302
.L304:
.LBB102:
	.loc 1 465 26
	ldr	r3, [r7, #56]
	ldr	r2, [r3, #44]
	.loc 1 465 45
	ldr	r3, [r7, #76]
	add	r3, r3, r2
	adds	r3, r3, #77
	ldrb	r2, [r3]	@ zero_extendqisi2
	.loc 1 465 55
	ldr	r3, [r7, #56]
	ldr	r3, [r3, #44]
	.loc 1 465 68
	ldrb	r3, [r3, #76]	@ zero_extendqisi2
	.loc 1 465 11
	ands	r3, r3, r2
	strb	r3, [r7, #35]
	.loc 1 466 23
	ldr	r3, [r7, #56]
	ldr	r2, [r3, #44]
	.loc 1 466 42
	ldr	r3, [r7, #76]
	add	r3, r3, r2
	adds	r3, r3, #77
	ldrb	r3, [r3]	@ zero_extendqisi2
	.loc 1 466 6
	ldrb	r2, [r7, #35]	@ zero_extendqisi2
	cmp	r2, r3
	bne	.L303
	.loc 1 466 53 discriminator 1
	ldr	r3, [r7, #56]
	ldr	r2, [r3, #44]
	.loc 1 466 72 discriminator 1
	ldr	r3, [r7, #76]
	add	r3, r3, r2
	adds	r3, r3, #77
	ldrb	r3, [r3]	@ zero_extendqisi2
	.loc 1 466 46 discriminator 1
	cmp	r3, #0
	beq	.L303
	.loc 1 467 22
	ldr	r3, [r7, #56]
	ldr	r2, [r3, #44]
	.loc 1 467 41
	ldr	r3, [r7, #76]
	add	r3, r3, r2
	adds	r3, r3, #77
	ldrb	r2, [r3]	@ zero_extendqisi2
	.loc 1 467 15
	ldrb	r3, [r7, #71]
	orrs	r3, r3, r2
	strb	r3, [r7, #71]
	.loc 1 468 8
	ldr	r3, [r7, #56]
	ldr	r2, [r3, #44]
	.loc 1 468 31
	ldr	r3, [r7, #76]
	add	r3, r3, r2
	adds	r3, r3, #36
	movs	r2, #1
	strb	r2, [r3]
.L303:
.LBE102:
	.loc 1 464 26 discriminator 2
	ldr	r3, [r7, #76]
	adds	r3, r3, #1
	str	r3, [r7, #76]
.L302:
	.loc 1 464 20 discriminator 1
	ldr	r3, [r7, #76]
	cmp	r3, #7
	ble	.L304
.LBE101:
	.loc 1 472 6
	ldr	r3, [r7, #56]
	ldr	r3, [r3, #44]
	.loc 1 472 19
	ldrb	r3, [r3, #76]	@ zero_extendqisi2
	sxtb	r2, r3
	.loc 1 472 27
	ldrsb	r3, [r7, #71]
	mvns	r3, r3
	sxtb	r3, r3
	ands	r3, r3, r2
	sxtb	r2, r3
	.loc 1 472 6
	ldr	r3, [r7, #56]
	ldr	r3, [r3, #44]
	.loc 1 472 27
	uxtb	r2, r2
	strb	r2, [r3, #76]
	.loc 1 473 5
	ldrb	r3, [r7, #71]	@ zero_extendqisi2
	cmp	r3, #0
	beq	.L310
	.loc 1 473 44 discriminator 1
	ldr	r3, [r7, #56]
	ldr	r3, [r3, #44]
	.loc 1 473 39 discriminator 1
	adds	r3, r3, #120
	.loc 1 473 21 discriminator 1
	mov	r0, r3
	bl	k_work_is_pending
	mov	r3, r0
	.loc 1 473 20 discriminator 1
	eor	r3, r3, #1
	uxtb	r3, r3
	.loc 1 473 17 discriminator 1
	cmp	r3, #0
	beq	.L310
	.loc 1 474 48
	ldr	r3, [r7, #56]
	ldr	r3, [r3, #44]
	.loc 1 474 3
	adds	r3, r3, #120
	mov	r1, r3
	ldr	r0, .L311+8
	bl	k_work_submit_to_queue
	.loc 1 478 2
	b	.L286
.L309:
	.loc 1 460 3
	nop
	b	.L286
.L310:
	.loc 1 477 1
	nop
.L301:
	.loc 1 478 2
	b	.L286
.L306:
	.loc 1 420 3
	nop
.L286:
	.loc 1 479 1
	adds	r7, r7, #84
	.cfi_def_cfa_offset 12
	mov	sp, r7
	.cfi_def_cfa_register 13
	@ sp needed
	pop	{r4, r7, pc}
.L312:
	.align	2
.L311:
	.word	__log_current_const_data
	.word	.LC11
	.word	dji_work_queue
	.cfi_endproc
.LFE681:
	.size	can_rx_callback, .-can_rx_callback
	.section	.text.proceed_delta_degree,"ax",%progbits
	.align	1
	.syntax unified
	.thumb
	.thumb_func
	.type	proceed_delta_degree, %function
proceed_delta_degree:
.LFB682:
	.loc 1 482 1
	.cfi_startproc
	@ args = 0, pretend = 0, frame = 40
	@ frame_needed = 1, uses_anonymous_args = 0
	push	{r7, lr}
	.cfi_def_cfa_offset 8
	.cfi_offset 7, -8
	.cfi_offset 14, -4
	sub	sp, sp, #40
	.cfi_def_cfa_offset 48
	add	r7, sp, #0
	.cfi_def_cfa_register 7
	str	r0, [r7, #4]
	.loc 1 483 25
	ldr	r3, [r7, #4]
	ldr	r3, [r3, #16]
	str	r3, [r7, #32]
	.loc 1 484 33
	ldr	r3, [r7, #4]
	ldr	r3, [r3, #4]
	str	r3, [r7, #28]
	.loc 1 486 18
	ldr	r3, [r7, #28]
	vldr.32	s15, [r3, #80]
	.loc 1 486 6
	vmov.f32	s14, #1.0e+0
	vsub.f32	s15, s15, s14
	vstr.32	s15, [r7, #24]
.LBB103:
.LBB104:
	.loc 4 183 5
	vldr.32	s15, [r7, #24]
	.syntax unified
@ 183 "/home/librgod/zephyr-sdk-0.17.0/arm-zephyr-eabi/picolibc/include/machine/math.h" 1
	vabs.f32	s15, s15
@ 0 "" 2
	.thumb
	.syntax unified
	vstr.32	s15, [r7, #20]
	.loc 4 184 12
	vldr.32	s15, [r7, #20]
.LBE104:
.LBE103:
	.loc 1 486 5
	vldr.32	s14, .L332
	vcmpe.f32	s15, s14
	vmrs	APSR_nzcv, FPSCR
	ble	.L330
	.loc 1 487 40
	ldr	r3, [r7, #32]
	ldr	r3, [r3, #64]
	.loc 1 487 28
	vmov	s15, r3	@ int
	vcvt.f32.s32	s14, s15
	.loc 1 488 19
	ldr	r3, [r7, #32]
	ldrb	r3, [r3, #49]	@ zero_extendqisi2
	mov	r1, r3
	.loc 1 488 33
	ldr	r2, .L332+4
	mov	r3, r1
	lsls	r3, r3, #1
	add	r3, r3, r1
	lsls	r3, r3, #3
	add	r3, r3, r2
	adds	r3, r3, #16
	vldr.32	s15, [r3]
	.loc 1 487 53
	vmul.f32	s13, s14, s15
	.loc 1 489 13
	ldr	r3, [r7, #28]
	vldr.32	s14, [r3, #80]
	.loc 1 488 37
	vdiv.f32	s15, s13, s14
	.loc 1 487 26
	ldr	r3, [r7, #32]
	vstr.32	s15, [r3, #16]
	.loc 1 491 24
	ldr	r3, [r7, #32]
	vldr.32	s15, [r3, #16]
	vldr.32	s1, .L332+8
	vmov.f32	s0, s15
	bl	fmodf
	vmov.f32	s15, s0
	.loc 1 491 22
	ldr	r3, [r7, #32]
	vstr.32	s15, [r3]
	.loc 1 492 19
	ldr	r3, [r7, #32]
	vldr.32	s15, [r3]
	.loc 1 492 6
	vcmpe.f32	s15, #0
	vmrs	APSR_nzcv, FPSCR
	bpl	.L317
	.loc 1 493 16
	ldr	r3, [r7, #32]
	vldr.32	s15, [r3]
	.loc 1 493 23
	vldr.32	s14, .L332+8
	vadd.f32	s15, s15, s14
	ldr	r3, [r7, #32]
	vstr.32	s15, [r3]
	b	.L317
.L330:
	.loc 1 497 16
	ldr	r3, [r7, #32]
	ldr	r3, [r3, #64]
	.loc 1 497 4
	vmov	s15, r3	@ int
	vcvt.f32.s32	s14, s15
	.loc 1 497 43
	ldr	r3, [r7, #32]
	ldrb	r3, [r3, #49]	@ zero_extendqisi2
	mov	r1, r3
	.loc 1 497 57
	ldr	r2, .L332+4
	mov	r3, r1
	lsls	r3, r3, #1
	add	r3, r3, r1
	lsls	r3, r3, #3
	add	r3, r3, r2
	adds	r3, r3, #16
	vldr.32	s15, [r3]
	.loc 1 497 29
	vmul.f32	s15, s14, s15
	.loc 1 496 26
	ldr	r3, [r7, #32]
	vstr.32	s15, [r3, #16]
	.loc 1 499 16
	ldr	r3, [r7, #32]
	ldrh	r3, [r3, #52]
	.loc 1 499 4
	vmov	s15, r3	@ int
	vcvt.f32.u32	s14, s15
	.loc 1 499 42
	ldr	r3, [r7, #32]
	ldrb	r3, [r3, #49]	@ zero_extendqisi2
	mov	r1, r3
	.loc 1 499 56
	ldr	r2, .L332+4
	mov	r3, r1
	lsls	r3, r3, #1
	add	r3, r3, r1
	lsls	r3, r3, #3
	add	r3, r3, r2
	adds	r3, r3, #16
	vldr.32	s15, [r3]
	.loc 1 499 28
	vmul.f32	s14, s14, s15
	.loc 1 500 8
	ldr	r3, [r7, #32]
	vldr.32	s15, [r3, #80]
	.loc 1 499 60
	vsub.f32	s15, s14, s15
	.loc 1 498 22
	ldr	r3, [r7, #32]
	vstr.32	s15, [r3]
.L317:
	.loc 1 503 34
	ldr	r3, [r7, #32]
	vldr.32	s14, [r3, #16]
	.loc 1 503 51
	ldr	r3, [r7, #32]
	vldr.32	s15, [r3, #92]
	.loc 1 503 8
	vsub.f32	s15, s14, s15
	vstr.32	s15, [r7, #36]
	.loc 1 505 18
	ldr	r3, [r7, #28]
	vldr.32	s15, [r3, #80]
	.loc 1 505 6
	vmov.f32	s14, #1.0e+0
	vsub.f32	s15, s15, s14
	vstr.32	s15, [r7, #16]
.LBB105:
.LBB106:
	.loc 4 183 5
	vldr.32	s15, [r7, #16]
	.syntax unified
@ 183 "/home/librgod/zephyr-sdk-0.17.0/arm-zephyr-eabi/picolibc/include/machine/math.h" 1
	vabs.f32	s15, s15
@ 0 "" 2
	.thumb
	.syntax unified
	vstr.32	s15, [r7, #12]
	.loc 4 184 12
	vldr.32	s15, [r7, #12]
.LBE106:
.LBE105:
	.loc 1 505 5
	vldr.32	s14, .L332
	vcmpe.f32	s15, s14
	vmrs	APSR_nzcv, FPSCR
	bpl	.L320
	.loc 1 506 6
	vldr.32	s15, [r7, #36]
	vldr.32	s14, .L332+12
	vcmpe.f32	s15, s14
	vmrs	APSR_nzcv, FPSCR
	ble	.L331
	.loc 1 507 16
	vldr.32	s15, [r7, #36]
	vldr.32	s14, .L332+8
	vsub.f32	s15, s15, s14
	vstr.32	s15, [r7, #36]
	b	.L320
.L331:
	.loc 1 508 13
	vldr.32	s15, [r7, #36]
	vldr.32	s14, .L332+16
	vcmpe.f32	s15, s14
	vmrs	APSR_nzcv, FPSCR
	bpl	.L320
	.loc 1 509 16
	vldr.32	s15, [r7, #36]
	vldr.32	s14, .L332+8
	vadd.f32	s15, s15, s14
	vstr.32	s15, [r7, #36]
.L320:
	.loc 1 513 24
	ldr	r3, [r7, #32]
	ldr	r2, [r7, #36]	@ float
	str	r2, [r3, #84]	@ float
	.loc 1 514 1
	nop
	adds	r7, r7, #40
	.cfi_def_cfa_offset 8
	mov	sp, r7
	.cfi_def_cfa_register 13
	@ sp needed
	pop	{r7, pc}
.L333:
	.align	2
.L332:
	.word	981668463
	.word	convert
	.word	1135869952
	.word	1127481344
	.word	-1020002304
	.cfi_endproc
.LFE682:
	.size	proceed_delta_degree, .-proceed_delta_degree
	.section	.text.can_pack_add,"ax",%progbits
	.align	1
	.syntax unified
	.thumb
	.thumb_func
	.type	can_pack_add, %function
can_pack_add:
.LFB683:
	.loc 1 517 1
	.cfi_startproc
	@ args = 0, pretend = 0, frame = 32
	@ frame_needed = 1, uses_anonymous_args = 0
	push	{r7, lr}
	.cfi_def_cfa_offset 8
	.cfi_offset 7, -8
	.cfi_offset 14, -4
	sub	sp, sp, #32
	.cfi_def_cfa_offset 40
	add	r7, sp, #0
	.cfi_def_cfa_register 7
	str	r0, [r7, #12]
	str	r1, [r7, #8]
	mov	r3, r2
	strb	r3, [r7, #7]
	.loc 1 518 25
	ldr	r3, [r7, #8]
	ldr	r3, [r3, #16]
	str	r3, [r7, #28]
	.loc 1 519 33
	ldr	r3, [r7, #8]
	ldr	r3, [r3, #4]
	str	r3, [r7, #24]
	.loc 1 521 18
	ldr	r3, [r7, #28]
	vldr.32	s15, [r3, #104]
	vmov.f32	s0, s15
	bl	to16t
	mov	r3, r0
	strh	r3, [r7, #22]	@ movhi
	.loc 1 523 10
	ldr	r3, [r7, #24]
	ldrb	r3, [r3, #87]	@ zero_extendqisi2
	.loc 1 523 6
	eor	r3, r3, #1
	uxtb	r3, r3
	.loc 1 523 5
	cmp	r3, #0
	beq	.L335
	.loc 1 524 17
	ldrsh	r3, [r7, #22]
	asrs	r3, r3, #8
	sxth	r2, r3
	.loc 1 524 12
	ldrb	r3, [r7, #7]	@ zero_extendqisi2
	lsls	r3, r3, #1
	mov	r1, r3
	.loc 1 524 7
	ldr	r3, [r7, #12]
	add	r3, r3, r1
	.loc 1 524 17
	uxtb	r2, r2
	strb	r2, [r3]
	.loc 1 525 12
	ldrb	r3, [r7, #7]	@ zero_extendqisi2
	lsls	r3, r3, #1
	.loc 1 525 7
	adds	r3, r3, #1
	ldr	r2, [r7, #12]
	add	r3, r3, r2
	.loc 1 525 21
	ldrh	r2, [r7, #22]	@ movhi
	uxtb	r2, r2
	strb	r2, [r3]
	.loc 1 530 1
	b	.L337
.L335:
	.loc 1 527 12
	ldrb	r3, [r7, #7]	@ zero_extendqisi2
	lsls	r3, r3, #1
	mov	r2, r3
	.loc 1 527 7
	ldr	r3, [r7, #12]
	add	r3, r3, r2
	.loc 1 527 17
	ldrh	r2, [r7, #22]	@ movhi
	uxtb	r2, r2
	strb	r2, [r3]
	.loc 1 528 21
	ldrsh	r3, [r7, #22]
	asrs	r3, r3, #8
	sxth	r1, r3
	.loc 1 528 12
	ldrb	r3, [r7, #7]	@ zero_extendqisi2
	lsls	r3, r3, #1
	.loc 1 528 7
	adds	r3, r3, #1
	ldr	r2, [r7, #12]
	add	r3, r3, r2
	.loc 1 528 21
	uxtb	r2, r1
	strb	r2, [r3]
.L337:
	.loc 1 530 1
	nop
	adds	r7, r7, #32
	.cfi_def_cfa_offset 8
	mov	sp, r7
	.cfi_def_cfa_register 13
	@ sp needed
	pop	{r7, pc}
	.cfi_endproc
.LFE683:
	.size	can_pack_add, .-can_pack_add
	.section	.rodata
	.align	2
.LC12:
	.ascii	"Motor \"%s\" on canbus \"%s\" is not responding\000"
	.section	.text.dji_timeout_handle,"ax",%progbits
	.align	1
	.syntax unified
	.thumb
	.thumb_func
	.type	dji_timeout_handle, %function
dji_timeout_handle:
.LFB684:
	.loc 1 533 1
	.cfi_startproc
	@ args = 0, pretend = 0, frame = 32
	@ frame_needed = 1, uses_anonymous_args = 0
	push	{r4, r5, r7, lr}
	.cfi_def_cfa_offset 16
	.cfi_offset 4, -16
	.cfi_offset 5, -12
	.cfi_offset 7, -8
	.cfi_offset 14, -4
	sub	sp, sp, #56
	.cfi_def_cfa_offset 72
	add	r7, sp, #24
	.cfi_def_cfa 7, 48
	str	r0, [r7, #4]
	str	r1, [r7]
	.loc 1 534 25
	ldr	r1, [r7, #4]
	ldr	r1, [r1, #16]
	str	r1, [r7, #28]
	.loc 1 535 33
	ldr	r1, [r7, #4]
	ldr	r1, [r1, #4]
	str	r1, [r7, #24]
	.loc 1 537 10
	ldr	r1, [r7, #28]
	ldrb	r1, [r1, #48]	@ zero_extendqisi2
	.loc 1 537 19
	eor	r1, r1, #1
	uxtb	r1, r1
	.loc 1 537 5
	cmp	r1, #0
	bne	.L349
	.loc 1 540 11
	ldr	r1, [r7, #28]
	ldr	r1, [r1, #68]
	str	r1, [r7, #20]
	.loc 1 541 198
	ldr	r0, [r7]
	ldr	r1, [r7, #20]
	subs	r1, r0, r1
	.loc 1 541 5
	cmn	r1, #85
	bhi	.L341
	.loc 1 541 80 discriminator 1
	ldr	r2, [r7]
	ldr	r3, [r7, #20]
	subs	r3, r2, r3
	.loc 1 541 93 discriminator 1
	adds	r3, r3, #84
	.loc 1 541 5 discriminator 1
	ldr	r2, .L352
	cmp	r3, r2
	bhi	.L342
	b	.L343
.L341:
	.loc 1 541 170 discriminator 2
	ldr	r0, [r7]
	ldr	r1, [r7, #20]
	subs	r1, r0, r1
	.loc 1 541 148 discriminator 2
	movs	r0, #0
	mov	r2, r1
	mov	r3, r0
	.loc 1 541 183 discriminator 2
	adds	r4, r2, #84
	adc	r5, r3, #0
	.loc 1 541 55 discriminator 2
	mov	r2, #168
	mov	r3, #0
	mov	r0, r4
	mov	r1, r5
	bl	__aeabi_uldivmod
	mov	r2, r0
	mov	r3, r1
	.loc 1 541 135 discriminator 2
	mov	r3, r2
	.loc 1 541 69 discriminator 2
	cmp	r3, #2000
	bhi	.L342
.L343:
	.loc 1 541 89 discriminator 3
	ldr	r2, [r7]
	ldr	r3, [r7, #20]
	subs	r3, r2, r3
	.loc 1 541 76 discriminator 3
	ldr	r2, .L352+4
	cmp	r3, r2
	bls	.L338
.L342:
	.loc 1 542 7
	ldr	r3, [r7, #28]
	ldrsb	r3, [r3, #76]
	.loc 1 542 21
	uxtb	r3, r3
	adds	r3, r3, #1
	uxtb	r3, r3
	sxtb	r2, r3
	ldr	r3, [r7, #28]
	strb	r2, [r3, #76]
	.loc 1 543 11
	ldr	r3, [r7, #28]
	ldrsb	r3, [r3, #76]
	.loc 1 543 6
	cmp	r3, #3
	ble	.L338
.LBB107:
	.loc 1 544 13
	movs	r3, #4
	.loc 1 544 12
	cmp	r3, #0
	beq	.L350
	.loc 1 544 24 discriminator 3
	movs	r3, #1
	strb	r3, [r7, #19]
	.loc 1 544 9 discriminator 3
	ldrb	r3, [r7, #19]
	eor	r3, r3, #1
	uxtb	r3, r3
	.loc 1 544 8 discriminator 3
	cmp	r3, #0
	bne	.L351
	.loc 1 544 39 discriminator 4
	ldr	r3, .L352+8
	ldr	r1, [r3]
	.loc 1 544 144 discriminator 4
	ldr	r3, [r7, #4]
	ldr	r3, [r3]
	.loc 1 544 163 discriminator 4
	ldr	r2, [r7, #24]
	ldr	r2, [r2]
	.loc 1 544 167 discriminator 4
	ldr	r2, [r2]
	.loc 1 544 39 discriminator 4
	str	r2, [sp, #16]
	str	r3, [sp, #12]
	ldr	r3, .L352+12
	str	r3, [sp, #8]
	movs	r3, #0
	str	r3, [sp, #4]
	movs	r3, #0
	str	r3, [sp]
	movs	r3, #0
	movs	r2, #1
	movs	r0, #0
	bl	z_log_msg_runtime_create
	.loc 1 544 184 discriminator 4
	movs	r3, #0
	str	r3, [r7, #12]
	b	.L345
.L350:
	.loc 1 544 307
	nop
	b	.L345
.L351:
	.loc 1 544 25
	nop
.L345:
.LBE107:
	.loc 1 546 12
	ldr	r3, [r7, #24]
	ldr	r3, [r3, #96]
	.loc 1 546 7
	cmp	r3, #0
	bne	.L347
	.loc 1 548 13
	ldr	r0, [r7, #4]
	bl	motor_id
	mov	r3, r0
	mov	r2, r3
	.loc 1 548 10
	movs	r3, #1
	lsls	r3, r3, r2
	.loc 1 548 6
	mvns	r5, r3
	.loc 1 547 9
	ldr	r3, [r7, #28]
	ldr	r4, [r3, #44]
	.loc 1 547 57
	ldr	r3, [r7, #24]
	ldr	r3, [r3, #8]
	.loc 1 547 29
	mov	r0, r3
	bl	frameID_to_index
	mov	r3, r0
	.loc 1 547 28
	adds	r2, r4, r3
	ldrb	r2, [r2, #77]	@ zero_extendqisi2
	sxtb	r1, r2
	.loc 1 547 66
	sxtb	r2, r5
	ands	r2, r2, r1
	sxtb	r1, r2
	.loc 1 547 9
	ldr	r2, [r7, #28]
	ldr	r2, [r2, #44]
	.loc 1 547 66
	uxtb	r1, r1
	add	r3, r3, r2
	mov	r2, r1
	strb	r2, [r3, #77]
	b	.L348
.L347:
	.loc 1 551 25
	ldr	r3, [r7, #24]
	ldr	r3, [r3, #96]
	.loc 1 551 13
	mov	r0, r3
	bl	motor_id
	mov	r3, r0
	mov	r2, r3
	.loc 1 551 10
	movs	r3, #1
	lsls	r3, r3, r2
	.loc 1 551 6
	mvns	r5, r3
	.loc 1 550 9
	ldr	r3, [r7, #28]
	ldr	r4, [r3, #44]
	.loc 1 550 57
	ldr	r3, [r7, #24]
	ldr	r3, [r3, #8]
	.loc 1 550 29
	mov	r0, r3
	bl	frameID_to_index
	mov	r3, r0
	.loc 1 550 28
	adds	r2, r4, r3
	ldrb	r2, [r2, #77]	@ zero_extendqisi2
	sxtb	r1, r2
	.loc 1 550 66
	sxtb	r2, r5
	ands	r2, r2, r1
	sxtb	r1, r2
	.loc 1 550 9
	ldr	r2, [r7, #28]
	ldr	r2, [r2, #44]
	.loc 1 550 66
	uxtb	r1, r1
	add	r3, r3, r2
	mov	r2, r1
	strb	r2, [r3, #77]
.L348:
	.loc 1 553 17
	ldr	r3, [r7, #28]
	movs	r2, #0
	strb	r2, [r3, #48]
	b	.L338
.L349:
	.loc 1 538 3
	nop
.L338:
	.loc 1 556 1
	adds	r7, r7, #32
	.cfi_def_cfa_offset 16
	mov	sp, r7
	.cfi_def_cfa_register 13
	@ sp needed
	pop	{r4, r5, r7, pc}
.L353:
	.align	2
.L352:
	.word	336167
	.word	100000
	.word	__log_current_const_data
	.word	.LC12
	.cfi_endproc
.LFE684:
	.size	dji_timeout_handle, .-dji_timeout_handle
	.section	.text.motor_calc,"ax",%progbits
	.align	1
	.syntax unified
	.thumb
	.thumb_func
	.type	motor_calc, %function
motor_calc:
.LFB685:
	.loc 1 559 1
	.cfi_startproc
	@ args = 0, pretend = 0, frame = 80
	@ frame_needed = 1, uses_anonymous_args = 0
	push	{r7, lr}
	.cfi_def_cfa_offset 8
	.cfi_offset 7, -8
	.cfi_offset 14, -4
	sub	sp, sp, #80
	.cfi_def_cfa_offset 88
	add	r7, sp, #0
	.cfi_def_cfa_register 7
	str	r0, [r7, #4]
	.loc 1 560 25
	ldr	r3, [r7, #4]
	ldr	r3, [r3, #16]
	str	r3, [r7, #72]
	.loc 1 563 6
	ldr	r3, [r7, #72]
	adds	r3, r3, #92
	str	r3, [r7, #56]
	add	r3, r7, #12
	str	r3, [r7, #52]
.LBB108:
.LBB109:
.LBB110:
.LBB111:
.LBB112:
.LBB113:
	.file 10 "/home/librgod/zephyr_workspace/modules/hal/cmsis/CMSIS/Core/Include/cmsis_gcc.h"
	.loc 10 1287 3
	.syntax unified
@ 1287 "/home/librgod/zephyr_workspace/modules/hal/cmsis/CMSIS/Core/Include/cmsis_gcc.h" 1
	MRS r3, basepri
@ 0 "" 2
	.thumb
	.syntax unified
	str	r3, [r7, #48]
	.loc 10 1288 9
	ldr	r3, [r7, #48]
.LBE113:
.LBE112:
	.file 11 "/home/librgod/zephyr_workspace/zephyr/include/zephyr/arch/arm/asm_inline_gcc.h"
	.loc 11 56 8
	str	r3, [r7, #44]
	movs	r3, #16
	str	r3, [r7, #40]
.LBB114:
.LBB115:
	.loc 10 1340 3
	ldr	r3, [r7, #40]
	.syntax unified
@ 1340 "/home/librgod/zephyr_workspace/modules/hal/cmsis/CMSIS/Core/Include/cmsis_gcc.h" 1
	MSR basepri_max, r3
@ 0 "" 2
	.loc 10 1341 1
	.thumb
	.syntax unified
	nop
.LBE115:
.LBE114:
.LBB116:
.LBB117:
	.loc 10 260 3
	.syntax unified
@ 260 "/home/librgod/zephyr_workspace/modules/hal/cmsis/CMSIS/Core/Include/cmsis_gcc.h" 1
	isb 0xF
@ 0 "" 2
	.loc 10 261 1
	.thumb
	.syntax unified
	nop
.LBE117:
.LBE116:
	.loc 11 72 9
	ldr	r3, [r7, #44]
.LBE111:
.LBE110:
	.file 12 "/home/librgod/zephyr_workspace/zephyr/include/zephyr/spinlock.h"
	.loc 12 232 6
	str	r3, [r7, #36]
	ldr	r3, [r7, #56]
	str	r3, [r7, #32]
.LBB118:
.LBB119:
	.loc 12 141 1
	nop
	ldr	r3, [r7, #56]
	str	r3, [r7, #28]
.LBE119:
.LBE118:
.LBB120:
.LBB121:
	.loc 12 152 1
	nop
.LBE121:
.LBE120:
	.loc 12 268 9
	ldr	r3, [r7, #52]
	ldr	r2, [r7, #36]
	str	r2, [r3]
	.loc 12 270 9
	movs	r3, #0
.LBE109:
.LBE108:
	.loc 1 563 5
	cmp	r3, #0
	bne	.L389
	.loc 1 566 33
	ldr	r3, [r7, #4]
	ldr	r3, [r3, #4]
	str	r3, [r7, #68]
	.loc 1 569 2
	ldr	r0, [r7, #4]
	bl	proceed_delta_degree
	.loc 1 572 7
	ldr	r3, [r7, #72]
	ldrsh	r3, [r3, #58]
	.loc 1 572 16
	vmov	s15, r3	@ int
	vcvt.f32.s32	s14, s15
	.loc 1 572 30
	ldr	r3, [r7, #72]
	ldrb	r3, [r3, #49]	@ zero_extendqisi2
	mov	r1, r3
	.loc 1 572 44
	ldr	r2, .L392
	mov	r3, r1
	lsls	r3, r3, #1
	add	r3, r3, r1
	lsls	r3, r3, #3
	add	r3, r3, r2
	adds	r3, r3, #8
	vldr.32	s15, [r3]
	.loc 1 572 16
	vmul.f32	s13, s14, s15
	.loc 1 572 56
	ldr	r3, [r7, #68]
	vldr.32	s14, [r3, #80]
	.loc 1 572 48
	vdiv.f32	s15, s13, s14
	.loc 1 571 19
	ldr	r3, [r7, #72]
	vstr.32	s15, [r3, #4]
	.loc 1 573 13
	ldr	r3, [r7, #68]
	ldrb	r3, [r3, #87]	@ zero_extendqisi2
	.loc 1 573 6
	eor	r3, r3, #1
	uxtb	r3, r3
	.loc 1 573 5
	cmp	r3, #0
	beq	.L360
	.loc 1 574 29
	ldr	r3, [r7, #72]
	ldrsh	r3, [r3, #56]
	.loc 1 574 42
	vmov	s15, r3	@ int
	vcvt.f32.s32	s14, s15
	.loc 1 575 23
	ldr	r3, [r7, #72]
	ldrb	r3, [r3, #49]	@ zero_extendqisi2
	mov	r1, r3
	.loc 1 575 37
	ldr	r2, .L392
	mov	r3, r1
	lsls	r3, r3, #1
	add	r3, r3, r1
	lsls	r3, r3, #3
	add	r3, r3, r2
	vldr.32	s15, [r3]
	.loc 1 574 42
	vmul.f32	s14, s14, s15
	.loc 1 576 17
	ldr	r3, [r7, #68]
	vldr.32	s15, [r3, #80]
	.loc 1 575 41
	vmul.f32	s15, s14, s15
	.loc 1 574 23
	ldr	r3, [r7, #72]
	vstr.32	s15, [r3, #8]
	b	.L361
.L360:
	.loc 1 578 37
	ldr	r3, [r7, #72]
	ldrsh	r3, [r3, #56]
	.loc 1 578 26
	vmov	s15, r3	@ int
	vcvt.f32.s32	s15, s15
	.loc 1 578 50
	vldr.32	s13, .L392+4
	vdiv.f32	s14, s15, s13
	.loc 1 578 70
	ldr	r3, [r7, #68]
	vldr.32	s15, [r3, #88]
	.loc 1 578 62
	vmul.f32	s14, s14, s15
	.loc 1 579 17
	ldr	r3, [r7, #68]
	vldr.32	s15, [r3, #92]
	.loc 1 578 81
	vmul.f32	s14, s14, s15
	.loc 1 579 43
	ldr	r3, [r7, #68]
	vldr.32	s15, [r3, #80]
	.loc 1 579 35
	vmul.f32	s15, s14, s15
	.loc 1 578 23
	ldr	r3, [r7, #72]
	vstr.32	s15, [r3, #8]
.L361:
	.loc 1 582 12
	ldr	r3, [r7, #68]
	ldr	r3, [r3, #96]
	.loc 1 582 5
	cmp	r3, #0
	beq	.L362
.LBB122:
	.loc 1 583 24
	ldr	r3, [r7, #68]
	ldr	r3, [r3, #96]
	str	r3, [r7, #64]
	.loc 1 584 26
	ldr	r3, [r7, #64]
	ldr	r3, [r3, #16]
	str	r3, [r7, #60]
	.loc 1 585 19
	ldr	r3, [r7, #60]
	ldrb	r3, [r3, #108]	@ zero_extendqisi2
	.loc 1 585 7
	eor	r3, r3, #1
	uxtb	r3, r3
	.loc 1 585 6
	cmp	r3, #0
	beq	.L363
	.loc 1 586 4
	ldr	r0, [r7, #64]
	bl	motor_calc
	.loc 1 587 28
	ldr	r3, [r7, #60]
	movs	r2, #1
	strb	r2, [r3, #108]
	.loc 1 588 37
	ldr	r3, [r7, #60]
	ldr	r2, [r3, #100]	@ float
	.loc 1 588 24
	ldr	r3, [r7, #72]
	str	r2, [r3, #100]	@ float
	.loc 1 594 3
	b	.L366
.L363:
	.loc 1 589 25
	ldr	r3, [r7, #60]
	ldrb	r3, [r3, #48]	@ zero_extendqisi2
	.loc 1 589 13
	cmp	r3, #0
	beq	.L365
	.loc 1 590 37
	ldr	r3, [r7, #60]
	ldr	r2, [r3, #100]	@ float
	.loc 1 590 24
	ldr	r3, [r7, #72]
	str	r2, [r3, #100]	@ float
	.loc 1 594 3
	b	.L366
.L365:
	.loc 1 592 24
	ldr	r3, [r7, #72]
	mov	r2, #0
	str	r2, [r3, #100]	@ float
	.loc 1 594 3
	b	.L366
.L362:
.LBE122:
.LBB123:
	.loc 1 597 19
	ldr	r3, [r7, #72]
	ldrsb	r3, [r3, #50]
	.loc 1 597 11
	str	r3, [r7, #76]
	.loc 1 597 2
	b	.L367
.L382:
	.loc 1 599 31
	ldr	r3, [r7, #68]
	ldr	r2, [r7, #76]
	adds	r2, r2, #16
	ldr	r3, [r3, r2, lsl #2]
	.loc 1 599 34
	ldr	r3, [r3, #28]
	.loc 1 599 6
	cmp	r3, #0
	bne	.L368
	.loc 1 600 1
	nop
.L366:
	.loc 1 601 12
	ldr	r3, [r7, #72]
	vldr.32	s14, [r3, #100]
	.loc 1 601 55
	ldr	r3, [r7, #72]
	vldr.32	s15, [r3, #32]
	.loc 1 601 7
	vcmpe.f32	s14, s15
	vmrs	APSR_nzcv, FPSCR
	ble	.L387
	.loc 1 602 52
	ldr	r3, [r7, #72]
	ldr	r2, [r3, #32]	@ float
	.loc 1 602 25
	ldr	r3, [r7, #72]
	str	r2, [r3, #100]	@ float
	b	.L371
.L387:
	.loc 1 603 19
	ldr	r3, [r7, #72]
	vldr.32	s14, [r3, #100]
	.loc 1 603 62
	ldr	r3, [r7, #72]
	vldr.32	s15, [r3, #28]
	.loc 1 603 14
	vcmpe.f32	s14, s15
	vmrs	APSR_nzcv, FPSCR
	bpl	.L371
	.loc 1 604 52
	ldr	r3, [r7, #72]
	ldr	r2, [r3, #28]	@ float
	.loc 1 604 25
	ldr	r3, [r7, #72]
	str	r2, [r3, #100]	@ float
.L371:
	.loc 1 606 15
	ldr	r3, [r7, #68]
	ldrb	r3, [r3, #87]	@ zero_extendqisi2
	.loc 1 606 8
	eor	r3, r3, #1
	uxtb	r3, r3
	.loc 1 606 7
	cmp	r3, #0
	beq	.L373
	.loc 1 607 32
	ldr	r3, [r7, #72]
	vldr.32	s13, [r3, #100]
	.loc 1 607 56
	ldr	r3, [r7, #68]
	vldr.32	s15, [r3, #80]
	.loc 1 607 48
	vdiv.f32	s14, s13, s15
	.loc 1 608 26
	ldr	r3, [r7, #72]
	ldrb	r3, [r3, #49]	@ zero_extendqisi2
	mov	r1, r3
	.loc 1 608 40
	ldr	r2, .L392
	mov	r3, r1
	lsls	r3, r3, #1
	add	r3, r3, r1
	lsls	r3, r3, #3
	add	r3, r3, r2
	adds	r3, r3, #4
	vldr.32	s15, [r3]
	.loc 1 607 69
	vmul.f32	s15, s14, s15
	.loc 1 607 26
	ldr	r3, [r7, #72]
	vstr.32	s15, [r3, #104]
	.loc 1 614 4
	b	.L375
.L373:
	.loc 1 610 32
	ldr	r3, [r7, #72]
	vldr.32	s15, [r3, #100]
	.loc 1 610 48
	vldr.32	s14, .L392+4
	vmul.f32	s13, s15, s14
	.loc 1 611 21
	ldr	r3, [r7, #68]
	vldr.32	s14, [r3, #92]
	.loc 1 611 47
	ldr	r3, [r7, #68]
	vldr.32	s15, [r3, #88]
	.loc 1 611 39
	vmul.f32	s14, s14, s15
	.loc 1 612 14
	ldr	r3, [r7, #68]
	vldr.32	s15, [r3, #80]
	.loc 1 611 58
	vmul.f32	s14, s14, s15
	.loc 1 610 59
	vdiv.f32	s15, s13, s14
	.loc 1 610 26
	ldr	r3, [r7, #72]
	vstr.32	s15, [r3, #104]
	.loc 1 614 4
	b	.L375
.L368:
	.loc 1 617 36
	ldr	r3, [r7, #68]
	ldr	r2, [r7, #76]
	adds	r2, r2, #16
	ldr	r3, [r3, r2, lsl #2]
	.loc 1 617 3
	mov	r0, r3
	bl	pid_calc
	.loc 1 619 41
	ldr	r2, [r7, #76]
	mov	r3, r2
	lsls	r3, r3, #1
	add	r3, r3, r2
	lsls	r3, r3, #2
	adds	r3, r3, #16
	ldr	r2, [r7, #68]
	add	r3, r3, r2
	.loc 1 619 7
	ldr	r1, .L392+8
	mov	r0, r3
	bl	strcmp
	mov	r3, r0
	.loc 1 619 6
	cmp	r3, #0
	bne	.L376
	.loc 1 620 12
	ldr	r3, [r7, #72]
	vldr.32	s14, [r3, #96]
	.loc 1 620 51
	ldr	r3, [r7, #72]
	vldr.32	s15, [r3, #24]
	.loc 1 620 7
	vcmpe.f32	s14, s15
	vmrs	APSR_nzcv, FPSCR
	ble	.L388
	.loc 1 621 48
	ldr	r3, [r7, #72]
	ldr	r2, [r3, #24]	@ float
	.loc 1 621 22
	ldr	r3, [r7, #72]
	str	r2, [r3, #96]	@ float
	b	.L376
.L388:
	.loc 1 622 19
	ldr	r3, [r7, #72]
	vldr.32	s14, [r3, #96]
	.loc 1 622 58
	ldr	r3, [r7, #72]
	vldr.32	s15, [r3, #20]
	.loc 1 622 14
	vcmpe.f32	s14, s15
	vmrs	APSR_nzcv, FPSCR
	bpl	.L376
	.loc 1 623 48
	ldr	r3, [r7, #72]
	ldr	r2, [r3, #20]	@ float
	.loc 1 623 22
	ldr	r3, [r7, #72]
	str	r2, [r3, #96]	@ float
.L376:
	.loc 1 627 41
	ldr	r2, [r7, #76]
	mov	r3, r2
	lsls	r3, r3, #1
	add	r3, r3, r2
	lsls	r3, r3, #2
	adds	r3, r3, #16
	ldr	r2, [r7, #68]
	add	r3, r3, r2
	.loc 1 627 7
	ldr	r1, .L392+12
	mov	r0, r3
	bl	strcmp
	mov	r3, r0
	.loc 1 627 6
	cmp	r3, #0
	beq	.L390
	.loc 1 629 48
	ldr	r2, [r7, #76]
	mov	r3, r2
	lsls	r3, r3, #1
	add	r3, r3, r2
	lsls	r3, r3, #2
	adds	r3, r3, #16
	ldr	r2, [r7, #68]
	add	r3, r3, r2
	.loc 1 629 14
	ldr	r1, .L392+16
	mov	r0, r3
	bl	strcmp
	mov	r3, r0
	.loc 1 629 13
	cmp	r3, #0
	beq	.L391
	.loc 1 598 8
	ldr	r3, [r7, #76]
	adds	r3, r3, #1
	str	r3, [r7, #76]
.L367:
	.loc 1 597 43 discriminator 1
	ldr	r3, [r7, #76]
	cmp	r3, #3
	bls	.L382
	b	.L375
.L390:
	.loc 1 628 4
	nop
	b	.L375
.L391:
	.loc 1 630 4
	nop
.L375:
.LBE123:
	.loc 1 633 2 discriminator 1
	ldr	r3, [r7, #72]
	adds	r3, r3, #92
	str	r3, [r7, #24]
	ldr	r3, [r7, #12]
	str	r3, [r7, #8]
.LBB124:
.LBB125:
	.loc 12 331 21 discriminator 1
	ldr	r3, [r7, #8]
	str	r3, [r7, #20]
	ldr	r3, [r7, #20]
	str	r3, [r7, #16]
.LBB126:
.LBB127:
.LBB128:
.LBB129:
	.loc 10 1315 3 discriminator 1
	ldr	r3, [r7, #16]
	.syntax unified
@ 1315 "/home/librgod/zephyr_workspace/modules/hal/cmsis/CMSIS/Core/Include/cmsis_gcc.h" 1
	MSR basepri, r3
@ 0 "" 2
	.loc 10 1316 1 discriminator 1
	.thumb
	.syntax unified
	nop
.LBE129:
.LBE128:
.LBB130:
.LBB131:
	.loc 10 260 3 discriminator 1
	.syntax unified
@ 260 "/home/librgod/zephyr_workspace/modules/hal/cmsis/CMSIS/Core/Include/cmsis_gcc.h" 1
	isb 0xF
@ 0 "" 2
	.loc 10 261 1 discriminator 1
	.thumb
	.syntax unified
	nop
.LBE131:
.LBE130:
	.loc 11 100 1 discriminator 1
	nop
.LBE127:
.LBE126:
	.loc 12 332 1 discriminator 1
	b	.L354
.L389:
.LBE125:
.LBE124:
	.loc 1 564 3
	nop
.L354:
	.loc 1 634 1
	adds	r7, r7, #80
	.cfi_def_cfa_offset 8
	mov	sp, r7
	.cfi_def_cfa_register 13
	@ sp needed
	pop	{r7, pc}
.L393:
	.align	2
.L392:
	.word	convert
	.word	1182793728
	.word	.LC2
	.word	.LC1
	.word	.LC6
	.cfi_endproc
.LFE685:
	.size	motor_calc, .-motor_calc
	.section	.text.dji_miss_isr_handler,"ax",%progbits
	.align	1
	.global	dji_miss_isr_handler
	.syntax unified
	.thumb
	.thumb_func
	.type	dji_miss_isr_handler, %function
dji_miss_isr_handler:
.LFB686:
	.loc 1 637 1
	.cfi_startproc
	@ args = 0, pretend = 0, frame = 8
	@ frame_needed = 1, uses_anonymous_args = 0
	push	{r7, lr}
	.cfi_def_cfa_offset 8
	.cfi_offset 7, -8
	.cfi_offset 14, -4
	sub	sp, sp, #8
	.cfi_def_cfa_offset 16
	add	r7, sp, #0
	.cfi_def_cfa_register 7
	str	r0, [r7, #4]
	.loc 1 639 2
	ldr	r1, .L395
	ldr	r0, .L395+4
	bl	k_work_submit_to_queue
	.loc 1 640 1
	nop
	adds	r7, r7, #8
	.cfi_def_cfa_offset 8
	mov	sp, r7
	.cfi_def_cfa_register 13
	@ sp needed
	pop	{r7, pc}
.L396:
	.align	2
.L395:
	.word	dji_miss_handle
	.word	dji_work_queue
	.cfi_endproc
.LFE686:
	.size	dji_miss_isr_handler, .-dji_miss_isr_handler
	.section	.text.dji_init_isr_handler,"ax",%progbits
	.align	1
	.global	dji_init_isr_handler
	.syntax unified
	.thumb
	.thumb_func
	.type	dji_init_isr_handler, %function
dji_init_isr_handler:
.LFB687:
	.loc 1 643 1
	.cfi_startproc
	@ args = 0, pretend = 0, frame = 8
	@ frame_needed = 1, uses_anonymous_args = 0
	push	{r7, lr}
	.cfi_def_cfa_offset 8
	.cfi_offset 7, -8
	.cfi_offset 14, -4
	sub	sp, sp, #16
	.cfi_def_cfa_offset 24
	add	r7, sp, #8
	.cfi_def_cfa 7, 16
	str	r0, [r7, #4]
	.loc 1 645 2
	movs	r3, #0
	str	r3, [sp]
	mov	r3, #-1
	mov	r2, #2048
	ldr	r1, .L398
	ldr	r0, .L398+4
	bl	k_work_queue_start
	.loc 1 647 2
	ldr	r1, .L398+8
	ldr	r0, .L398+4
	bl	k_work_submit_to_queue
	.loc 1 648 1
	nop
	adds	r7, r7, #8
	.cfi_def_cfa_offset 8
	mov	sp, r7
	.cfi_def_cfa_register 13
	@ sp needed
	pop	{r7, pc}
.L399:
	.align	2
.L398:
	.word	dji_work_queue_stack
	.word	dji_work_queue
	.word	dji_init_handle
	.cfi_endproc
.LFE687:
	.size	dji_init_isr_handler, .-dji_init_isr_handler
	.section	.text.dji_miss_handler,"ax",%progbits
	.align	1
	.global	dji_miss_handler
	.syntax unified
	.thumb
	.thumb_func
	.type	dji_miss_handler, %function
dji_miss_handler:
.LFB688:
	.loc 1 651 1
	.cfi_startproc
	@ args = 0, pretend = 0, frame = 16
	@ frame_needed = 1, uses_anonymous_args = 0
	push	{r7, lr}
	.cfi_def_cfa_offset 8
	.cfi_offset 7, -8
	.cfi_offset 14, -4
	sub	sp, sp, #16
	.cfi_def_cfa_offset 24
	add	r7, sp, #0
	.cfi_def_cfa_register 7
	str	r0, [r7, #4]
	.loc 1 653 18
	bl	k_cycle_get_32
	mov	r3, r0
	.loc 1 653 6
	str	r3, [r7, #8]
.LBB132:
	.loc 1 654 11
	movs	r3, #0
	str	r3, [r7, #12]
	.loc 1 654 2
	b	.L401
.L402:
	.loc 1 655 3 discriminator 3
	ldr	r2, .L403
	ldr	r3, [r7, #12]
	ldr	r3, [r2, r3, lsl #2]
	ldr	r2, [r7, #8]
	mov	r1, r2
	mov	r0, r3
	bl	dji_timeout_handle
	.loc 1 654 73 discriminator 3
	ldr	r3, [r7, #12]
	adds	r3, r3, #1
	str	r3, [r7, #12]
.L401:
	.loc 1 654 20 discriminator 1
	ldr	r3, [r7, #12]
	cmp	r3, #5
	bls	.L402
.LBE132:
	.loc 1 657 1
	nop
	nop
	adds	r7, r7, #16
	.cfi_def_cfa_offset 8
	mov	sp, r7
	.cfi_def_cfa_register 13
	@ sp needed
	pop	{r7, pc}
.L404:
	.align	2
.L403:
	.word	motor_devices
	.cfi_endproc
.LFE688:
	.size	dji_miss_handler, .-dji_miss_handler
	.section	.rodata
	.align	2
.LC13:
	.ascii	"Error attaching CAN RX callback (err %d)\000"
	.section	.text.dji_init_handler,"ax",%progbits
	.align	1
	.global	dji_init_handler
	.syntax unified
	.thumb
	.thumb_func
	.type	dji_init_handler, %function
dji_init_handler:
.LFB689:
	.loc 1 660 1
	.cfi_startproc
	@ args = 0, pretend = 0, frame = 40
	@ frame_needed = 1, uses_anonymous_args = 0
	push	{r7, lr}
	.cfi_def_cfa_offset 8
	.cfi_offset 7, -8
	.cfi_offset 14, -4
	sub	sp, sp, #56
	.cfi_def_cfa_offset 64
	add	r7, sp, #16
	.cfi_def_cfa 7, 48
	str	r0, [r7, #4]
	.loc 1 662 2
	ldr	r0, .L414
	bl	k_timer_stop
.LBB133:
	.loc 1 663 11
	movs	r3, #0
	str	r3, [r7, #36]
	.loc 1 663 2
	b	.L406
.L411:
	.loc 1 664 20
	ldr	r2, .L414+4
	ldr	r3, [r7, #36]
	ldr	r3, [r2, r3, lsl #2]
	.loc 1 664 6
	cmp	r3, #0
	beq	.L407
.LBB134:
	.loc 1 665 54
	ldr	r2, .L414+4
	ldr	r3, [r7, #36]
	ldr	r3, [r2, r3, lsl #2]
	.loc 1 665 35
	ldr	r3, [r3, #4]
	str	r3, [r7, #32]
	.loc 1 667 22
	ldr	r3, [r7, #32]
	ldr	r3, [r3, #12]
	.loc 1 666 22
	str	r3, [r7, #8]
	movw	r3, #2047
	str	r3, [r7, #12]
	movs	r3, #0
	strb	r3, [r7, #16]
	.loc 1 671 43
	ldr	r3, [r7, #32]
	ldr	r0, [r3]
	.loc 1 672 32
	ldr	r2, .L414+4
	ldr	r3, [r7, #36]
	ldr	r2, [r2, r3, lsl #2]
	.loc 1 671 14
	add	r3, r7, #8
	ldr	r1, .L414+8
	bl	can_add_rx_filter
	str	r0, [r7, #28]
	.loc 1 673 7
	ldr	r3, [r7, #28]
	cmp	r3, #0
	bge	.L407
.LBB135:
	.loc 1 674 14
	movs	r3, #4
	.loc 1 674 13
	cmp	r3, #0
	beq	.L412
	.loc 1 674 25 discriminator 3
	movs	r3, #1
	strb	r3, [r7, #27]
	.loc 1 674 10 discriminator 3
	ldrb	r3, [r7, #27]
	eor	r3, r3, #1
	uxtb	r3, r3
	.loc 1 674 9 discriminator 3
	cmp	r3, #0
	bne	.L413
	.loc 1 674 40 discriminator 4
	ldr	r3, .L414+12
	ldr	r1, [r3]
	ldr	r3, [r7, #28]
	str	r3, [sp, #12]
	ldr	r3, .L414+16
	str	r3, [sp, #8]
	movs	r3, #0
	str	r3, [sp, #4]
	movs	r3, #0
	str	r3, [sp]
	movs	r3, #0
	movs	r2, #1
	movs	r0, #0
	bl	z_log_msg_runtime_create
	.loc 1 674 149 discriminator 4
	movs	r3, #0
	str	r3, [r7, #20]
	b	.L407
.L412:
	.loc 1 674 308
	nop
	b	.L407
.L413:
	.loc 1 674 26
	nop
.L407:
.LBE135:
.LBE134:
	.loc 1 663 73 discriminator 2
	ldr	r3, [r7, #36]
	adds	r3, r3, #1
	str	r3, [r7, #36]
.L406:
	.loc 1 663 20 discriminator 1
	ldr	r3, [r7, #36]
	cmp	r3, #5
	bls	.L411
.LBE133:
	.loc 1 678 34
	ldr	r3, .L414
	ldr	r2, .L414+20
	str	r2, [r3, #32]
	.loc 1 679 55
	mov	r0, #0
	mov	r1, #0
	.loc 1 679 76
	mov	r2, #40
	mov	r3, #0
	.loc 1 679 2
	strd	r2, [sp]
	mov	r2, r0
	mov	r3, r1
	ldr	r0, .L414
	bl	k_timer_start
	.loc 1 680 1
	nop
	adds	r7, r7, #40
	.cfi_def_cfa_offset 8
	mov	sp, r7
	.cfi_def_cfa_register 13
	@ sp needed
	pop	{r7, pc}
.L415:
	.align	2
.L414:
	.word	dji_miss_handle_timer
	.word	motor_devices
	.word	can_rx_callback
	.word	__log_current_const_data
	.word	.LC13
	.word	dji_miss_isr_handler
	.cfi_endproc
.LFE689:
	.size	dji_init_handler, .-dji_init_handler
	.section	.text.dji_tx_handler,"ax",%progbits
	.align	1
	.global	dji_tx_handler
	.syntax unified
	.thumb
	.thumb_func
	.type	dji_tx_handler, %function
dji_tx_handler:
.LFB690:
	.loc 1 683 1
	.cfi_startproc
	@ args = 0, pretend = 0, frame = 56
	@ frame_needed = 1, uses_anonymous_args = 0
	push	{r7, lr}
	.cfi_def_cfa_offset 8
	.cfi_offset 7, -8
	.cfi_offset 14, -4
	sub	sp, sp, #56
	.cfi_def_cfa_offset 64
	add	r7, sp, #0
	.cfi_def_cfa_register 7
	str	r0, [r7, #4]
	.loc 1 684 27
	ldr	r3, [r7, #4]
	subs	r3, r3, #120
	str	r3, [r7, #40]
	.loc 1 686 5
	ldr	r3, [r7, #4]
	cmp	r3, #0
	beq	.L428
.LBB136:
	.loc 1 690 11
	movs	r3, #0
	str	r3, [r7, #52]
	.loc 1 690 2
	b	.L419
.L427:
	.loc 1 691 24
	ldr	r2, [r7, #40]
	ldr	r3, [r7, #52]
	add	r3, r3, r2
	adds	r3, r3, #36
	ldrb	r3, [r3]	@ zero_extendqisi2
	.loc 1 691 6
	cmp	r3, #0
	beq	.L420
.LBB137:
	.loc 1 692 25
	ldr	r2, [r7, #40]
	ldr	r3, [r7, #52]
	add	r3, r3, r2
	adds	r3, r3, #36
	movs	r2, #0
	strb	r2, [r3]
	.loc 1 694 11
	movs	r3, #255
	strb	r3, [r7, #39]
	.loc 1 695 8
	movs	r3, #0
	strb	r3, [r7, #51]
	.loc 1 696 21
	add	r3, r7, #8
	movs	r2, #0
	str	r2, [r3]
	str	r2, [r3, #4]
	str	r2, [r3, #8]
	str	r2, [r3, #12]
.LBB138:
	.loc 1 698 13
	movs	r3, #0
	str	r3, [r7, #44]
	.loc 1 698 4
	b	.L421
.L425:
.LBB139:
	.loc 1 699 13
	ldr	r2, [r7, #40]
	ldr	r3, [r7, #52]
	lsls	r3, r3, #2
	add	r2, r2, r3
	ldr	r3, [r7, #44]
	add	r3, r3, r2
	adds	r3, r3, #44
	ldrb	r3, [r3]
	strb	r3, [r7, #39]
	.loc 1 700 8
	ldrsb	r3, [r7, #39]
	cmp	r3, #0
	blt	.L429
	.loc 1 703 55
	ldrsb	r2, [r7, #39]
	.loc 1 703 26
	ldr	r3, [r7, #40]
	adds	r2, r2, #22
	ldr	r3, [r3, r2, lsl #2]
	str	r3, [r7, #28]
	.loc 1 704 28
	ldr	r3, [r7, #28]
	ldr	r3, [r3, #16]
	str	r3, [r7, #24]
	.loc 1 705 8
	ldrsb	r3, [r7, #39]
	cmp	r3, #7
	bgt	.L423
	.loc 1 705 28 discriminator 1
	ldr	r3, [r7, #24]
	ldrb	r3, [r3, #48]	@ zero_extendqisi2
	.loc 1 705 21 discriminator 1
	cmp	r3, #0
	beq	.L423
	.loc 1 706 15
	ldr	r3, [r7, #24]
	ldrb	r3, [r3, #108]	@ zero_extendqisi2
	.loc 1 706 10
	eor	r3, r3, #1
	uxtb	r3, r3
	.loc 1 706 9
	cmp	r3, #0
	beq	.L424
	.loc 1 707 7
	ldrsb	r2, [r7, #39]
	.loc 1 707 41
	ldr	r3, [r7, #40]
	adds	r2, r2, #22
	ldr	r3, [r3, r2, lsl #2]
	.loc 1 707 7
	mov	r0, r3
	bl	motor_calc
	.loc 1 708 24
	ldr	r3, [r7, #24]
	movs	r2, #1
	strb	r2, [r3, #108]
.L424:
	.loc 1 710 6
	ldrsb	r2, [r7, #39]
	ldr	r3, [r7, #40]
	adds	r2, r2, #22
	ldr	r1, [r3, r2, lsl #2]
	ldr	r3, [r7, #44]
	uxtb	r2, r3
	add	r3, r7, #8
	adds	r3, r3, #8
	mov	r0, r3
	bl	can_pack_add
	.loc 1 712 13
	movs	r3, #1
	strb	r3, [r7, #51]
	b	.L423
.L429:
	.loc 1 701 6
	nop
.L423:
.LBE139:
	.loc 1 698 28 discriminator 2
	ldr	r3, [r7, #44]
	adds	r3, r3, #1
	str	r3, [r7, #44]
.L421:
	.loc 1 698 22 discriminator 1
	ldr	r3, [r7, #44]
	cmp	r3, #3
	ble	.L425
.LBE138:
	.loc 1 715 7
	ldrb	r3, [r7, #51]	@ zero_extendqisi2
	cmp	r3, #0
	beq	.L420
.LBB140:
	.loc 1 716 18
	ldr	r0, [r7, #52]
	bl	index_to_frameID
	mov	r3, r0
	.loc 1 716 16
	str	r3, [r7, #8]
	.loc 1 717 17
	movs	r3, #8
	strb	r3, [r7, #12]
	.loc 1 718 19
	movs	r3, #0
	strb	r3, [r7, #13]
	.loc 1 719 26
	ldr	r3, [r7, #40]
	ldr	r3, [r3]
	str	r3, [r7, #32]
	.loc 1 720 5
	add	r3, r7, #8
	mov	r1, r3
	ldr	r0, [r7, #32]
	bl	can_send_queued
.L420:
.LBE140:
.LBE137:
	.loc 1 690 26 discriminator 2
	ldr	r3, [r7, #52]
	adds	r3, r3, #1
	str	r3, [r7, #52]
.L419:
	.loc 1 690 20 discriminator 1
	ldr	r3, [r7, #52]
	cmp	r3, #7
	ble	.L427
	b	.L416
.L428:
.LBE136:
	.loc 1 687 3
	nop
.L416:
	.loc 1 724 1
	adds	r7, r7, #56
	.cfi_def_cfa_offset 8
	mov	sp, r7
	.cfi_def_cfa_register 13
	@ sp needed
	pop	{r7, pc}
	.cfi_endproc
.LFE690:
	.size	dji_tx_handler, .-dji_tx_handler
	.global	jump_speed_pid_motor1
	.section	.data.jump_speed_pid_motor1,"aw"
	.align	2
	.type	jump_speed_pid_motor1, %object
	.size	jump_speed_pid_motor1, 44
jump_speed_pid_motor1:
	.space	28
	.word	__device_dts_ord_37
	.space	12
	.section	.rodata.dji_motor_cfg_motor1,"a"
	.align	2
	.type	dji_motor_cfg_motor1, %object
	.size	dji_motor_cfg_motor1, 100
dji_motor_cfg_motor1:
	.word	__device_dts_ord_40
	.byte	1
	.space	3
	.word	1022
	.word	769
	.ascii	"speed\000"
	.space	6
	.space	36
	.word	jump_speed_pid_motor1
	.space	12
	.word	1065353216
	.byte	0
	.byte	0
	.byte	0
	.byte	1
	.word	1120403456
	.word	1031540549
	.word	0
	.section	.data.dji_motor_data_motor1,"aw"
	.align	2
	.type	dji_motor_data_motor1, %object
	.size	dji_motor_data_motor1, 112
dji_motor_data_motor1:
	.word	0
	.word	0
	.word	0
	.word	0
	.word	0
	.word	-943501440
	.word	1203982208
	.word	-943501440
	.word	1203982208
	.byte	0
	.space	3
	.byte	0
	.space	3
	.word	0
	.byte	0
	.byte	0
	.byte	-1
	.space	1
	.short	0
	.short	0
	.short	0
	.short	0
	.byte	0
	.space	3
	.word	0
	.word	0
	.word	0
	.byte	0
	.space	3
	.word	0
	.word	0
	.word	0
	.space	20
	.section	.z_devstate,"aw"
	.type	__devstate_dts_ord_41, %object
	.size	__devstate_dts_ord_41, 2
__devstate_dts_ord_41:
	.space	2
	.global	__device_dts_ord_41
	.section	.rodata
	.align	2
.LC14:
	.ascii	"motor1\000"
	.section	._device.static.3_90_,"a"
	.align	2
	.type	__device_dts_ord_41, %object
	.size	__device_dts_ord_41, 32
__device_dts_ord_41:
	.word	.LC14
	.word	dji_motor_cfg_motor1
	.word	motor_api_funcs
	.word	__devstate_dts_ord_41
	.word	dji_motor_data_motor1
	.word	dji_init
	.word	0
	.byte	0
	.space	3
	.section	.z_init_POST_KERNEL_P_90_SUB_00041_,"a"
	.align	2
	.type	__init___device_dts_ord_41, %object
	.size	__init___device_dts_ord_41, 8
__init___device_dts_ord_41:
	.word	0
	.word	__device_dts_ord_41
	.section	.rodata.dji_motor_cfg_motor2,"a"
	.align	2
	.type	dji_motor_cfg_motor2, %object
	.size	dji_motor_cfg_motor2, 100
dji_motor_cfg_motor2:
	.word	__device_dts_ord_40
	.byte	2
	.space	3
	.word	1022
	.word	770
	.ascii	"\000"
	.space	11
	.space	36
	.space	16
	.word	1065353216
	.byte	0
	.byte	0
	.byte	0
	.byte	1
	.word	1120403456
	.word	1031540549
	.word	__device_dts_ord_41
	.section	.data.dji_motor_data_motor2,"aw"
	.align	2
	.type	dji_motor_data_motor2, %object
	.size	dji_motor_data_motor2, 112
dji_motor_data_motor2:
	.word	0
	.word	0
	.word	0
	.word	0
	.word	0
	.word	-943501440
	.word	1203982208
	.word	-943501440
	.word	1203982208
	.byte	0
	.space	3
	.byte	0
	.space	3
	.word	0
	.byte	0
	.byte	0
	.byte	-1
	.space	1
	.short	0
	.short	0
	.short	0
	.short	0
	.byte	0
	.space	3
	.word	0
	.word	0
	.word	0
	.byte	0
	.space	3
	.word	0
	.word	0
	.word	0
	.space	20
	.section	.z_devstate
	.type	__devstate_dts_ord_42, %object
	.size	__devstate_dts_ord_42, 2
__devstate_dts_ord_42:
	.space	2
	.global	__device_dts_ord_42
	.section	.rodata
	.align	2
.LC15:
	.ascii	"motor2\000"
	.section	._device.static.3_90_
	.align	2
	.type	__device_dts_ord_42, %object
	.size	__device_dts_ord_42, 32
__device_dts_ord_42:
	.word	.LC15
	.word	dji_motor_cfg_motor2
	.word	motor_api_funcs
	.word	__devstate_dts_ord_42
	.word	dji_motor_data_motor2
	.word	dji_init
	.word	0
	.byte	0
	.space	3
	.section	.z_init_POST_KERNEL_P_90_SUB_00042_,"a"
	.align	2
	.type	__init___device_dts_ord_42, %object
	.size	__init___device_dts_ord_42, 8
__init___device_dts_ord_42:
	.word	0
	.word	__device_dts_ord_42
	.section	.rodata.dji_motor_cfg_motor3,"a"
	.align	2
	.type	dji_motor_cfg_motor3, %object
	.size	dji_motor_cfg_motor3, 100
dji_motor_cfg_motor3:
	.word	__device_dts_ord_40
	.byte	3
	.space	3
	.word	1022
	.word	771
	.ascii	"\000"
	.space	11
	.space	36
	.space	16
	.word	1065353216
	.byte	0
	.byte	0
	.byte	0
	.byte	1
	.word	1120403456
	.word	1031540549
	.word	__device_dts_ord_41
	.section	.data.dji_motor_data_motor3,"aw"
	.align	2
	.type	dji_motor_data_motor3, %object
	.size	dji_motor_data_motor3, 112
dji_motor_data_motor3:
	.word	0
	.word	0
	.word	0
	.word	0
	.word	0
	.word	-943501440
	.word	1203982208
	.word	-943501440
	.word	1203982208
	.byte	0
	.space	3
	.byte	0
	.space	3
	.word	0
	.byte	0
	.byte	0
	.byte	-1
	.space	1
	.short	0
	.short	0
	.short	0
	.short	0
	.byte	0
	.space	3
	.word	0
	.word	0
	.word	0
	.byte	0
	.space	3
	.word	0
	.word	0
	.word	0
	.space	20
	.section	.z_devstate
	.type	__devstate_dts_ord_43, %object
	.size	__devstate_dts_ord_43, 2
__devstate_dts_ord_43:
	.space	2
	.global	__device_dts_ord_43
	.section	.rodata
	.align	2
.LC16:
	.ascii	"motor3\000"
	.section	._device.static.3_90_
	.align	2
	.type	__device_dts_ord_43, %object
	.size	__device_dts_ord_43, 32
__device_dts_ord_43:
	.word	.LC16
	.word	dji_motor_cfg_motor3
	.word	motor_api_funcs
	.word	__devstate_dts_ord_43
	.word	dji_motor_data_motor3
	.word	dji_init
	.word	0
	.byte	0
	.space	3
	.section	.z_init_POST_KERNEL_P_90_SUB_00043_,"a"
	.align	2
	.type	__init___device_dts_ord_43, %object
	.size	__init___device_dts_ord_43, 8
__init___device_dts_ord_43:
	.word	0
	.word	__device_dts_ord_43
	.section	.rodata.dji_motor_cfg_motor4,"a"
	.align	2
	.type	dji_motor_cfg_motor4, %object
	.size	dji_motor_cfg_motor4, 100
dji_motor_cfg_motor4:
	.word	__device_dts_ord_40
	.byte	4
	.space	3
	.word	1022
	.word	772
	.ascii	"\000"
	.space	11
	.space	36
	.space	16
	.word	1065353216
	.byte	0
	.byte	0
	.byte	0
	.byte	1
	.word	1120403456
	.word	-1115943099
	.word	__device_dts_ord_41
	.section	.data.dji_motor_data_motor4,"aw"
	.align	2
	.type	dji_motor_data_motor4, %object
	.size	dji_motor_data_motor4, 112
dji_motor_data_motor4:
	.word	0
	.word	0
	.word	0
	.word	0
	.word	0
	.word	-943501440
	.word	1203982208
	.word	-943501440
	.word	1203982208
	.byte	0
	.space	3
	.byte	0
	.space	3
	.word	0
	.byte	0
	.byte	0
	.byte	-1
	.space	1
	.short	0
	.short	0
	.short	0
	.short	0
	.byte	0
	.space	3
	.word	0
	.word	0
	.word	0
	.byte	0
	.space	3
	.word	0
	.word	0
	.word	0
	.space	20
	.section	.z_devstate
	.type	__devstate_dts_ord_44, %object
	.size	__devstate_dts_ord_44, 2
__devstate_dts_ord_44:
	.space	2
	.global	__device_dts_ord_44
	.section	.rodata
	.align	2
.LC17:
	.ascii	"motor4\000"
	.section	._device.static.3_90_
	.align	2
	.type	__device_dts_ord_44, %object
	.size	__device_dts_ord_44, 32
__device_dts_ord_44:
	.word	.LC17
	.word	dji_motor_cfg_motor4
	.word	motor_api_funcs
	.word	__devstate_dts_ord_44
	.word	dji_motor_data_motor4
	.word	dji_init
	.word	0
	.byte	0
	.space	3
	.section	.z_init_POST_KERNEL_P_90_SUB_00044_,"a"
	.align	2
	.type	__init___device_dts_ord_44, %object
	.size	__init___device_dts_ord_44, 8
__init___device_dts_ord_44:
	.word	0
	.word	__device_dts_ord_44
	.section	.rodata.dji_motor_cfg_motor5,"a"
	.align	2
	.type	dji_motor_cfg_motor5, %object
	.size	dji_motor_cfg_motor5, 100
dji_motor_cfg_motor5:
	.word	__device_dts_ord_40
	.byte	5
	.space	3
	.word	1278
	.word	773
	.ascii	"\000"
	.space	11
	.space	36
	.space	16
	.word	1065353216
	.byte	0
	.byte	0
	.byte	0
	.byte	1
	.word	1120403456
	.word	-1115943099
	.word	__device_dts_ord_41
	.section	.data.dji_motor_data_motor5,"aw"
	.align	2
	.type	dji_motor_data_motor5, %object
	.size	dji_motor_data_motor5, 112
dji_motor_data_motor5:
	.word	0
	.word	0
	.word	0
	.word	0
	.word	0
	.word	-943501440
	.word	1203982208
	.word	-943501440
	.word	1203982208
	.byte	0
	.space	3
	.byte	0
	.space	3
	.word	0
	.byte	0
	.byte	0
	.byte	-1
	.space	1
	.short	0
	.short	0
	.short	0
	.short	0
	.byte	0
	.space	3
	.word	0
	.word	0
	.word	0
	.byte	0
	.space	3
	.word	0
	.word	0
	.word	0
	.space	20
	.section	.z_devstate
	.type	__devstate_dts_ord_45, %object
	.size	__devstate_dts_ord_45, 2
__devstate_dts_ord_45:
	.space	2
	.global	__device_dts_ord_45
	.section	.rodata
	.align	2
.LC18:
	.ascii	"motor5\000"
	.section	._device.static.3_90_
	.align	2
	.type	__device_dts_ord_45, %object
	.size	__device_dts_ord_45, 32
__device_dts_ord_45:
	.word	.LC18
	.word	dji_motor_cfg_motor5
	.word	motor_api_funcs
	.word	__devstate_dts_ord_45
	.word	dji_motor_data_motor5
	.word	dji_init
	.word	0
	.byte	0
	.space	3
	.section	.z_init_POST_KERNEL_P_90_SUB_00045_,"a"
	.align	2
	.type	__init___device_dts_ord_45, %object
	.size	__init___device_dts_ord_45, 8
__init___device_dts_ord_45:
	.word	0
	.word	__device_dts_ord_45
	.section	.rodata.dji_motor_cfg_motor6,"a"
	.align	2
	.type	dji_motor_cfg_motor6, %object
	.size	dji_motor_cfg_motor6, 100
dji_motor_cfg_motor6:
	.word	__device_dts_ord_40
	.byte	6
	.space	3
	.word	1278
	.word	774
	.ascii	"\000"
	.space	11
	.space	36
	.space	16
	.word	1065353216
	.byte	0
	.byte	0
	.byte	0
	.byte	1
	.word	1120403456
	.word	-1115943099
	.word	__device_dts_ord_41
	.section	.data.dji_motor_data_motor6,"aw"
	.align	2
	.type	dji_motor_data_motor6, %object
	.size	dji_motor_data_motor6, 112
dji_motor_data_motor6:
	.word	0
	.word	0
	.word	0
	.word	0
	.word	0
	.word	-943501440
	.word	1203982208
	.word	-943501440
	.word	1203982208
	.byte	0
	.space	3
	.byte	0
	.space	3
	.word	0
	.byte	0
	.byte	0
	.byte	-1
	.space	1
	.short	0
	.short	0
	.short	0
	.short	0
	.byte	0
	.space	3
	.word	0
	.word	0
	.word	0
	.byte	0
	.space	3
	.word	0
	.word	0
	.word	0
	.space	20
	.section	.z_devstate
	.type	__devstate_dts_ord_46, %object
	.size	__devstate_dts_ord_46, 2
__devstate_dts_ord_46:
	.space	2
	.global	__device_dts_ord_46
	.section	.rodata
	.align	2
.LC19:
	.ascii	"motor6\000"
	.section	._device.static.3_90_
	.align	2
	.type	__device_dts_ord_46, %object
	.size	__device_dts_ord_46, 32
__device_dts_ord_46:
	.word	.LC19
	.word	dji_motor_cfg_motor6
	.word	motor_api_funcs
	.word	__devstate_dts_ord_46
	.word	dji_motor_data_motor6
	.word	dji_init
	.word	0
	.byte	0
	.space	3
	.section	.z_init_POST_KERNEL_P_90_SUB_00046_,"a"
	.align	2
	.type	__init___device_dts_ord_46, %object
	.size	__init___device_dts_ord_46, 8
__init___device_dts_ord_46:
	.word	0
	.word	__device_dts_ord_46
	.text
.Letext0:
	.file 13 "/home/librgod/zephyr-sdk-0.17.0/arm-zephyr-eabi/picolibc/include/machine/_default_types.h"
	.file 14 "/home/librgod/zephyr-sdk-0.17.0/arm-zephyr-eabi/picolibc/include/sys/_stdint.h"
	.file 15 "/home/librgod/zephyr-sdk-0.17.0/arm-zephyr-eabi/lib/gcc/arm-zephyr-eabi/12.2.0/include/stddef.h"
	.file 16 "/home/librgod/zephyr_workspace/zephyr/include/zephyr/init.h"
	.file 17 "/home/librgod/zephyr_workspace/zephyr/include/zephyr/device.h"
	.file 18 "/home/librgod/zephyr_workspace/motor/drivers/motor/dji/dji_ratios.h"
	.file 19 "/home/librgod/zephyr-sdk-0.17.0/arm-zephyr-eabi/lib/gcc/arm-zephyr-eabi/12.2.0/include/stdarg.h"
	.file 20 "/home/librgod/zephyr_workspace/zephyr/include/zephyr/sys/dlist.h"
	.file 21 "/home/librgod/zephyr_workspace/zephyr/include/zephyr/sys/slist.h"
	.file 22 "/home/librgod/zephyr_workspace/zephyr/include/zephyr/sys/sys_heap.h"
	.file 23 "/home/librgod/zephyr_workspace/zephyr/include/zephyr/kernel/stats.h"
	.file 24 "/home/librgod/zephyr_workspace/zephyr/include/zephyr/sys/rb.h"
	.file 25 "/home/librgod/zephyr_workspace/zephyr/include/zephyr/kernel/thread.h"
	.file 26 "/home/librgod/zephyr_workspace/zephyr/include/zephyr/kernel_structs.h"
	.file 27 "/home/librgod/zephyr_workspace/zephyr/include/zephyr/arch/arch_interface.h"
	.file 28 "/home/librgod/zephyr_workspace/zephyr/include/zephyr/kernel/thread_stack.h"
	.file 29 "/home/librgod/zephyr_workspace/zephyr/include/zephyr/arch/arm/thread.h"
	.file 30 "/home/librgod/zephyr_workspace/zephyr/include/zephyr/sys_clock.h"
	.file 31 "/home/librgod/zephyr_workspace/zephyr/include/zephyr/fatal_types.h"
	.file 32 "/home/librgod/zephyr_workspace/zephyr/include/zephyr/logging/log_instance.h"
	.file 33 "/home/librgod/zephyr_workspace/motor/include/zephyr/drivers/motor.h"
	.file 34 "/home/librgod/zephyr_workspace/motor/drivers/motor/dji/motor_dji.h"
	.file 35 "/home/librgod/zephyr-sdk-0.17.0/arm-zephyr-eabi/picolibc/include/math.h"
	.file 36 "/home/librgod/zephyr_workspace/motor/drivers/motor/dji/../common/common.h"
	.file 37 "/home/librgod/zephyr-sdk-0.17.0/arm-zephyr-eabi/picolibc/include/string.h"
	.file 38 "<built-in>"