	.cpu cortex-m4
	.arch armv7e-m
	.fpu fpv4-sp-d16
	.eabi_attribute 27, 1
	.eabi_attribute 28, 1
	.eabi_attribute 20, 1
	.eabi_attribute 21, 1
	.eabi_attribute 23, 3
	.eabi_attribute 24, 1
	.eabi_attribute 25, 1
	.eabi_attribute 26, 1
	.eabi_attribute 30, 2
	.eabi_attribute 34, 1
	.eabi_attribute 38, 1
	.eabi_attribute 18, 4
	.file	"algorithm.c"
	.text
.Ltext0:
	.cfi_sections	.debug_frame
	.file 1 "/home/librgod/zephyr_workspace/motor/include/ares/ekf/algorithm.c"
	.section	.text.zmalloc,"ax",%progbits
	.align	1
	.p2align 2,,3
	.global	zmalloc
	.syntax unified
	.thumb
	.thumb_func
	.type	zmalloc, %function
zmalloc:
.LVL0:
.LFB141:
	.loc 1 24 1 view -0
	.cfi_startproc
	@ args = 0, pretend = 0, frame = 0
	@ frame_needed = 0, uses_anonymous_args = 0
	.loc 1 25 2 view .LVU1
	.loc 1 24 1 is_stmt 0 view .LVU2
	push	{r3, r4, r5, lr}
	.cfi_def_cfa_offset 16
	.cfi_offset 3, -16
	.cfi_offset 4, -12
	.cfi_offset 5, -8
	.cfi_offset 14, -4
	.loc 1 24 1 view .LVU3
	mov	r5, r0
	.loc 1 25 14 view .LVU4
	bl	malloc
.LVL1:
	.loc 1 26 2 view .LVU5
	mov	r2, r5
	.loc 1 25 14 view .LVU6
	mov	r4, r0
.LVL2:
	.loc 1 26 2 is_stmt 1 view .LVU7
	movs	r1, #0
	bl	memset
.LVL3:
	.loc 1 27 2 view .LVU8
	.loc 1 28 1 is_stmt 0 view .LVU9
	mov	r0, r4
	pop	{r3, r4, r5, pc}
	.loc 1 28 1 view .LVU10
	.cfi_endproc
.LFE141:
	.size	zmalloc, .-zmalloc
	.section	.text.Sqrt,"ax",%progbits
	.align	1
	.p2align 2,,3
	.global	Sqrt
	.syntax unified
	.thumb
	.thumb_func
	.type	Sqrt, %function
Sqrt:
.LVL4:
.LFB142:
	.loc 1 32 1 is_stmt 1 view -0
	.cfi_startproc
	@ args = 0, pretend = 0, frame = 0
	@ frame_needed = 0, uses_anonymous_args = 0
	@ link register save eliminated.
	.loc 1 33 2 view .LVU12
	.loc 1 34 2 view .LVU13
	.loc 1 35 2 view .LVU14
	.loc 1 37 2 view .LVU15
	.loc 1 37 5 is_stmt 0 view .LVU16
	vcmpe.f32	s0, #0
	vmrs	APSR_nzcv, FPSCR
	.loc 1 32 1 view .LVU17
	vmov.f32	s12, s0
	.loc 1 37 5 view .LVU18
	bls	.L8
	.loc 1 42 2 is_stmt 1 view .LVU19
	.loc 1 45 11 is_stmt 0 view .LVU20
	vldr.32	s11, .L9
	.loc 1 42 4 view .LVU21
	vmov.f32	s15, #5.0e-1
	.loc 1 45 11 view .LVU22
	vmul.f32	s11, s0, s11
	.loc 1 42 4 view .LVU23
	vmul.f32	s0, s0, s15
.LVL5:
	.loc 1 45 2 is_stmt 1 view .LVU24
	.loc 1 45 2 is_stmt 0 view .LVU25
	vneg.f32	s10, s11
.L6:
	.loc 1 47 2 is_stmt 1 discriminator 3 view .LVU26
	.loc 1 48 3 discriminator 3 view .LVU27
	.loc 1 48 14 is_stmt 0 discriminator 3 view .LVU28
	vmul.f32	s15, s0, s0
	.loc 1 49 19 discriminator 3 view .LVU29
	vadd.f32	s13, s0, s0
	.loc 1 48 9 discriminator 3 view .LVU30
	vsub.f32	s15, s15, s12
.LVL6:
	.loc 1 49 3 is_stmt 1 discriminator 3 view .LVU31
	.loc 1 49 14 is_stmt 0 discriminator 3 view .LVU32
	vdiv.f32	s14, s15, s13
	.loc 1 50 28 discriminator 3 view .LVU33
	vcmpe.f32	s11, s15
	vmrs	APSR_nzcv, FPSCR
	.loc 1 49 5 discriminator 3 view .LVU34
	vsub.f32	s0, s0, s14
.LVL7:
	.loc 1 50 28 is_stmt 1 discriminator 3 view .LVU35
	bmi	.L6
	.loc 1 50 28 is_stmt 0 discriminator 2 view .LVU36
	vcmpe.f32	s15, s10
	vmrs	APSR_nzcv, FPSCR
	bmi	.L6
	bx	lr
.LVL8:
.L8:
	.loc 1 38 10 view .LVU37
	vldr.32	s0, .L9+4
.LVL9:
	.loc 1 53 1 view .LVU38
	bx	lr
.L10:
	.align	2
.L9:
	.word	981668463
	.word	0
	.cfi_endproc
.LFE142:
	.size	Sqrt, .-Sqrt
	.section	.text.abs_limit,"ax",%progbits
	.align	1
	.p2align 2,,3
	.global	abs_limit
	.syntax unified
	.thumb
	.thumb_func
	.type	abs_limit, %function
abs_limit:
.LVL10:
.LFB143:
	.loc 1 57 1 is_stmt 1 view -0
	.cfi_startproc
	@ args = 0, pretend = 0, frame = 0
	@ frame_needed = 0, uses_anonymous_args = 0
	@ link register save eliminated.
	.loc 1 58 2 view .LVU40
	.loc 1 57 1 is_stmt 0 view .LVU41
	vmov.f32	s15, s0
	.loc 1 58 5 view .LVU42
	vcmpe.f32	s15, s1
	vmrs	APSR_nzcv, FPSCR
	.loc 1 57 1 view .LVU43
	vmov.f32	s0, s1
.LVL11:
	.loc 1 58 5 view .LVU44
	bgt	.L12
	.loc 1 60 9 is_stmt 1 view .LVU45
	.loc 1 60 19 is_stmt 0 view .LVU46
	vneg.f32	s0, s1
	.loc 1 60 12 view .LVU47
	vcmpe.f32	s0, s15
	vmrs	APSR_nzcv, FPSCR
	it	le
	vmovle.f32	s0, s15
.L12:
.LVL12:
	.loc 1 63 2 is_stmt 1 view .LVU48
	.loc 1 64 1 is_stmt 0 view .LVU49
	bx	lr
	.cfi_endproc
.LFE143:
	.size	abs_limit, .-abs_limit
	.section	.text.sign,"ax",%progbits
	.align	1
	.p2align 2,,3
	.global	sign
	.syntax unified
	.thumb
	.thumb_func
	.type	sign, %function
sign:
.LVL13:
.LFB144:
	.loc 1 68 1 is_stmt 1 view -0
	.cfi_startproc
	@ args = 0, pretend = 0, frame = 0
	@ frame_needed = 0, uses_anonymous_args = 0
	@ link register save eliminated.
	.loc 1 69 2 view .LVU51
	.loc 1 72 10 is_stmt 0 view .LVU52
	vcmpe.f32	s0, #0
	vmov.f32	s14, #1.0e+0
	vmrs	APSR_nzcv, FPSCR
	vmov.f32	s0, #-1.0e+0
.LVL14:
	.loc 1 74 1 view .LVU53
	it	ge
	vmovge.f32	s0, s14
	bx	lr
	.cfi_endproc
.LFE144:
	.size	sign, .-sign
	.section	.text.float_deadband,"ax",%progbits
	.align	1
	.p2align 2,,3
	.global	float_deadband
	.syntax unified
	.thumb
	.thumb_func
	.type	float_deadband, %function
float_deadband:
.LVL15:
.LFB145:
	.loc 1 78 1 is_stmt 1 view -0
	.cfi_startproc
	@ args = 0, pretend = 0, frame = 0
	@ frame_needed = 0, uses_anonymous_args = 0
	@ link register save eliminated.
	.loc 1 79 2 view .LVU55
	.loc 1 79 5 is_stmt 0 view .LVU56
	vcmpe.f32	s0, s2
	vmrs	APSR_nzcv, FPSCR
	bpl	.L19
	.loc 1 79 23 discriminator 1 view .LVU57
	vcmpe.f32	s0, s1
	vmrs	APSR_nzcv, FPSCR
	.loc 1 80 9 discriminator 1 view .LVU58
	it	gt
	vldrgt.32	s0, .L24
.LVL16:
.L19:
	.loc 1 82 2 is_stmt 1 view .LVU59
	.loc 1 83 1 is_stmt 0 view .LVU60
	bx	lr
.L25:
	.align	2
.L24:
	.word	0
	.cfi_endproc
.LFE145:
	.size	float_deadband, .-float_deadband
	.section	.text.float_constrain,"ax",%progbits
	.align	1
	.p2align 2,,3
	.global	float_constrain
	.syntax unified
	.thumb
	.thumb_func
	.type	float_constrain, %function
float_constrain:
.LVL17:
.LFB146:
	.loc 1 87 1 is_stmt 1 view -0
	.cfi_startproc
	@ args = 0, pretend = 0, frame = 0
	@ frame_needed = 0, uses_anonymous_args = 0
	@ link register save eliminated.
	.loc 1 88 2 view .LVU62
	.loc 1 88 5 is_stmt 0 view .LVU63
	vcmpe.f32	s0, s1
	vmrs	APSR_nzcv, FPSCR
	bmi	.L29
	.loc 1 90 9 is_stmt 1 view .LVU64
	.loc 1 93 10 is_stmt 0 view .LVU65
	vcmpe.f32	s0, s2
	vmrs	APSR_nzcv, FPSCR
	it	gt
	vmovgt.f32	s0, s2
.LVL18:
	.loc 1 93 10 view .LVU66
	bx	lr
.LVL19:
.L29:
	.loc 1 89 10 view .LVU67
	vmov.f32	s0, s1
.LVL20:
	.loc 1 95 1 view .LVU68
	bx	lr
	.cfi_endproc
.LFE146:
	.size	float_constrain, .-float_constrain
	.section	.text.int16_constrain,"ax",%progbits
	.align	1
	.p2align 2,,3
	.global	int16_constrain
	.syntax unified
	.thumb
	.thumb_func
	.type	int16_constrain, %function
int16_constrain:
.LVL21:
.LFB147:
	.loc 1 99 1 is_stmt 1 view -0
	.cfi_startproc
	@ args = 0, pretend = 0, frame = 0
	@ frame_needed = 0, uses_anonymous_args = 0
	@ link register save eliminated.
	.loc 1 100 2 view .LVU70
	.loc 1 100 5 is_stmt 0 view .LVU71
	cmp	r0, r1
	blt	.L34
	.loc 1 102 9 is_stmt 1 view .LVU72
	cmp	r0, r2
	it	ge
	movge	r0, r2
.LVL22:
	.loc 1 102 9 is_stmt 0 view .LVU73
	bx	lr
.LVL23:
.L34:
	.loc 1 102 9 view .LVU74
	mov	r0, r1
.LVL24:
	.loc 1 107 1 view .LVU75
	bx	lr
	.cfi_endproc
.LFE147:
	.size	int16_constrain, .-int16_constrain
	.section	.text.loop_float_constrain,"ax",%progbits
	.align	1
	.p2align 2,,3
	.global	loop_float_constrain
	.syntax unified
	.thumb
	.thumb_func
	.type	loop_float_constrain, %function
loop_float_constrain:
.LVL25:
.LFB148:
	.loc 1 111 1 is_stmt 1 view -0
	.cfi_startproc
	@ args = 0, pretend = 0, frame = 0
	@ frame_needed = 0, uses_anonymous_args = 0
	@ link register save eliminated.
	.loc 1 112 2 view .LVU77
	.loc 1 112 5 is_stmt 0 view .LVU78
	vcmpe.f32	s2, s1
	vmrs	APSR_nzcv, FPSCR
	bmi	.L36
	.loc 1 116 2 is_stmt 1 view .LVU79
	.loc 1 116 5 is_stmt 0 view .LVU80
	vcmpe.f32	s2, s0
	vmrs	APSR_nzcv, FPSCR
	bpl	.L46
.LBB18:
	.loc 1 117 3 is_stmt 1 view .LVU81
	.loc 1 117 9 is_stmt 0 view .LVU82
	vsub.f32	s1, s2, s1
.LVL26:
	.loc 1 118 3 is_stmt 1 view .LVU83
	.loc 1 118 16 view .LVU84
.L39:
	.loc 1 119 4 view .LVU85
	.loc 1 119 10 is_stmt 0 view .LVU86
	vsub.f32	s0, s0, s1
.LVL27:
	.loc 1 118 16 is_stmt 1 view .LVU87
	vcmpe.f32	s2, s0
	vmrs	APSR_nzcv, FPSCR
	bmi	.L39
	bx	lr
.LVL28:
.L46:
	.loc 1 118 16 is_stmt 0 view .LVU88
.LBE18:
.LBB19:
.LBI19:
	.loc 1 110 7 is_stmt 1 view .LVU89
.LBB20:
	.loc 1 121 9 view .LVU90
	.loc 1 121 12 is_stmt 0 view .LVU91
	vcmpe.f32	s1, s0
	vmrs	APSR_nzcv, FPSCR
	bgt	.L47
.LVL29:
.L36:
	.loc 1 121 12 view .LVU92
.LBE20:
.LBE19:
	.loc 1 128 1 view .LVU93
	bx	lr
.LVL30:
.L47:
.LBB23:
.LBB22:
.LBB21:
	.loc 1 122 3 is_stmt 1 view .LVU94
	.loc 1 122 9 is_stmt 0 view .LVU95
	vsub.f32	s2, s2, s1
.LVL31:
	.loc 1 123 3 is_stmt 1 view .LVU96
	.loc 1 123 16 view .LVU97
.L41:
	.loc 1 124 4 view .LVU98
	.loc 1 124 10 is_stmt 0 view .LVU99
	vadd.f32	s0, s0, s2
.LVL32:
	.loc 1 123 16 is_stmt 1 view .LVU100
	vcmpe.f32	s1, s0
	vmrs	APSR_nzcv, FPSCR
	bgt	.L41
.LVL33:
	.loc 1 123 16 is_stmt 0 view .LVU101
.LBE21:
.LBE22:
.LBE23:
	.loc 1 128 1 view .LVU102
	bx	lr
	.cfi_endproc
.LFE148:
	.size	loop_float_constrain, .-loop_float_constrain
	.section	.text.theta_format,"ax",%progbits
	.align	1
	.p2align 2,,3
	.global	theta_format
	.syntax unified
	.thumb
	.thumb_func
	.type	theta_format, %function
theta_format:
.LVL34:
.LFB149:
	.loc 1 134 1 is_stmt 1 view -0
	.cfi_startproc
	@ args = 0, pretend = 0, frame = 0
	@ frame_needed = 0, uses_anonymous_args = 0
	@ link register save eliminated.
	.loc 1 135 2 view .LVU104
.LBB31:
.LBB32:
	.loc 1 116 5 is_stmt 0 view .LVU105
	vldr.32	s15, .L59
.LVL35:
	.loc 1 116 5 view .LVU106
.LBE32:
.LBI31:
	.loc 1 110 7 is_stmt 1 view .LVU107
.LBB37:
	.loc 1 112 2 view .LVU108
	.loc 1 116 2 view .LVU109
	.loc 1 116 5 is_stmt 0 view .LVU110
	vcmpe.f32	s0, s15
	vmrs	APSR_nzcv, FPSCR
	ble	.L58
.LBB33:
	.loc 1 119 10 view .LVU111
	vldr.32	s14, .L59+4
.LVL36:
.L51:
	.loc 1 119 4 is_stmt 1 view .LVU112
	.loc 1 119 10 is_stmt 0 view .LVU113
	vsub.f32	s0, s0, s14
.LVL37:
	.loc 1 118 16 is_stmt 1 view .LVU114
	vcmpe.f32	s0, s15
	vmrs	APSR_nzcv, FPSCR
	bgt	.L51
	bx	lr
.LVL38:
.L58:
	.loc 1 118 16 is_stmt 0 view .LVU115
.LBE33:
.LBB34:
.LBI34:
	.loc 1 110 7 is_stmt 1 view .LVU116
.LBB35:
	.loc 1 121 9 view .LVU117
	.loc 1 121 12 is_stmt 0 view .LVU118
	vldr.32	s15, .L59+8
	vcmpe.f32	s0, s15
	vmrs	APSR_nzcv, FPSCR
	bpl	.L48
.LBB36:
	.loc 1 124 10 view .LVU119
	vldr.32	s14, .L59+4
.LVL39:
.L54:
	.loc 1 124 4 is_stmt 1 view .LVU120
	.loc 1 124 10 is_stmt 0 view .LVU121
	vadd.f32	s0, s0, s14
.LVL40:
	.loc 1 123 16 is_stmt 1 view .LVU122
	vcmpe.f32	s0, s15
	vmrs	APSR_nzcv, FPSCR
	bmi	.L54
.L48:
	.loc 1 123 16 is_stmt 0 view .LVU123
.LBE36:
.LBE35:
.LBE34:
.LBE37:
.LBE31:
	.loc 1 136 1 view .LVU124
	bx	lr
.L60:
	.align	2
.L59:
	.word	1127481344
	.word	1135869952
	.word	-1020002304
	.cfi_endproc
.LFE149:
	.size	theta_format, .-theta_format
	.section	.text.float_rounding,"ax",%progbits
	.align	1
	.p2align 2,,3
	.global	float_rounding
	.syntax unified
	.thumb
	.thumb_func
	.type	float_rounding, %function
float_rounding:
.LVL41:
.LFB150:
	.loc 1 139 1 is_stmt 1 view -0
	.cfi_startproc
	@ args = 0, pretend = 0, frame = 0
	@ frame_needed = 0, uses_anonymous_args = 0
	@ link register save eliminated.
	.loc 1 140 2 view .LVU126
	.loc 1 141 2 view .LVU127
	.loc 1 142 2 view .LVU128
	.loc 1 142 12 is_stmt 0 view .LVU129
	vcvt.s32.f32	s14, s0
	.loc 1 144 5 view .LVU130
	vmov.f32	s15, #5.0e-1
	.loc 1 142 12 view .LVU131
	vmov	r0, s14	@ int
	.loc 1 143 2 is_stmt 1 view .LVU132
	.loc 1 144 2 view .LVU133
	.loc 1 143 16 is_stmt 0 view .LVU134
	vcvt.f32.s32	s14, s14
	.loc 1 142 10 view .LVU135
	ldr	r3, .L66
	.loc 1 143 16 view .LVU136
	vsub.f32	s0, s0, s14
.LVL42:
	.loc 1 144 5 view .LVU137
	vcmpe.f32	s0, s15
	vmrs	APSR_nzcv, FPSCR
	.loc 1 145 3 is_stmt 1 view .LVU138
	.loc 1 145 10 is_stmt 0 view .LVU139
	it	gt
	addgt	r0, r0, #1
	.loc 1 142 10 view .LVU140
	str	r0, [r3]
	.loc 1 147 2 is_stmt 1 view .LVU141
	.loc 1 148 1 is_stmt 0 view .LVU142
	bx	lr
.L67:
	.align	2
.L66:
	.word	integer.1
	.cfi_endproc
.LFE150:
	.size	float_rounding, .-float_rounding
	.section	.text.Norm3d,"ax",%progbits
	.align	1
	.p2align 2,,3
	.global	Norm3d
	.syntax unified
	.thumb
	.thumb_func
	.type	Norm3d, %function
Norm3d:
.LVL43:
.LFB151:
	.loc 1 152 1 is_stmt 1 view -0
	.cfi_startproc
	@ args = 0, pretend = 0, frame = 0
	@ frame_needed = 0, uses_anonymous_args = 0
	@ link register save eliminated.
	.loc 1 153 2 view .LVU144
	.loc 1 153 20 is_stmt 0 view .LVU145
	vldr.32	s6, [r0]
	.loc 1 153 34 view .LVU146
	vldr.32	s7, [r0, #4]
	.loc 1 153 48 view .LVU147
	vldr.32	s8, [r0, #8]
	.loc 1 153 24 view .LVU148
	vmul.f32	s11, s6, s6
	.loc 1 153 38 view .LVU149
	vmul.f32	s14, s7, s7
	.loc 1 153 52 view .LVU150
	vmul.f32	s15, s8, s8
	.loc 1 153 31 view .LVU151
	vadd.f32	s11, s11, s14
	.loc 1 153 14 view .LVU152
	vadd.f32	s11, s11, s15
.LVL44:
.LBB38:
.LBI38:
	.loc 1 31 7 is_stmt 1 view .LVU153
.LBB39:
	.loc 1 33 2 view .LVU154
	.loc 1 34 2 view .LVU155
	.loc 1 35 2 view .LVU156
	.loc 1 37 2 view .LVU157
	.loc 1 37 5 is_stmt 0 view .LVU158
	vcmpe.f32	s11, #0
	vmrs	APSR_nzcv, FPSCR
	bls	.L72
	.loc 1 42 2 is_stmt 1 view .LVU159
	.loc 1 45 11 is_stmt 0 view .LVU160
	vldr.32	s10, .L73
	.loc 1 42 4 view .LVU161
	vmov.f32	s15, #5.0e-1
	.loc 1 45 11 view .LVU162
	vmul.f32	s10, s11, s10
	.loc 1 42 4 view .LVU163
	vmul.f32	s15, s11, s15
.LVL45:
	.loc 1 45 2 is_stmt 1 view .LVU164
	.loc 1 45 2 is_stmt 0 view .LVU165
	vneg.f32	s9, s10
.L70:
	.loc 1 47 2 is_stmt 1 view .LVU166
	.loc 1 48 3 view .LVU167
	.loc 1 48 14 is_stmt 0 view .LVU168
	vmul.f32	s14, s15, s15
	.loc 1 49 19 view .LVU169
	vadd.f32	s12, s15, s15
	.loc 1 48 9 view .LVU170
	vsub.f32	s14, s14, s11
.LVL46:
	.loc 1 49 3 is_stmt 1 view .LVU171
	.loc 1 49 14 is_stmt 0 view .LVU172
	vdiv.f32	s13, s14, s12
	.loc 1 50 28 view .LVU173
	vcmpe.f32	s10, s14
	vmrs	APSR_nzcv, FPSCR
	.loc 1 49 5 view .LVU174
	vsub.f32	s15, s15, s13
.LVL47:
	.loc 1 50 28 is_stmt 1 view .LVU175
	bmi	.L70
	vcmpe.f32	s14, s9
	vmrs	APSR_nzcv, FPSCR
	bmi	.L70
.LVL48:
.L69:
	.loc 1 50 28 is_stmt 0 view .LVU176
.LBE39:
.LBE38:
	.loc 1 154 2 is_stmt 1 view .LVU177
	.loc 1 154 7 is_stmt 0 view .LVU178
	vdiv.f32	s12, s6, s15
	.loc 1 155 7 view .LVU179
	vdiv.f32	s13, s7, s15
	.loc 1 156 7 view .LVU180
	vdiv.f32	s14, s8, s15
	.loc 1 154 7 view .LVU181
	vstr.32	s12, [r0]
	.loc 1 155 2 is_stmt 1 view .LVU182
	.loc 1 155 7 is_stmt 0 view .LVU183
	vstr.32	s13, [r0, #4]
	.loc 1 156 2 is_stmt 1 view .LVU184
	.loc 1 156 7 is_stmt 0 view .LVU185
	vstr.32	s14, [r0, #8]
	.loc 1 157 2 is_stmt 1 view .LVU186
	.loc 1 158 1 is_stmt 0 view .LVU187
	bx	lr
.LVL49:
.L72:
.LBB41:
.LBB40:
	.loc 1 38 10 view .LVU188
	vldr.32	s15, .L73+4
	b	.L69
.L74:
	.align	2
.L73:
	.word	981668463
	.word	0
.LBE40:
.LBE41:
	.cfi_endproc
.LFE151:
	.size	Norm3d, .-Norm3d
	.section	.text.NormOf3d,"ax",%progbits
	.align	1
	.p2align 2,,3
	.global	NormOf3d
	.syntax unified
	.thumb
	.thumb_func
	.type	NormOf3d, %function
NormOf3d:
.LVL50:
.LFB152:
	.loc 1 162 1 is_stmt 1 view -0
	.cfi_startproc
	@ args = 0, pretend = 0, frame = 0
	@ frame_needed = 0, uses_anonymous_args = 0
	@ link register save eliminated.
	.loc 1 163 2 view .LVU190
	.loc 1 163 15 is_stmt 0 view .LVU191
	vldr.32	s12, [r0]
	.loc 1 163 29 view .LVU192
	vldr.32	s14, [r0, #4]
	.loc 1 163 43 view .LVU193
	vldr.32	s15, [r0, #8]
	.loc 1 163 19 view .LVU194
	vmul.f32	s12, s12, s12
	.loc 1 163 33 view .LVU195
	vmul.f32	s14, s14, s14
	.loc 1 163 47 view .LVU196
	vmul.f32	s15, s15, s15
	.loc 1 163 26 view .LVU197
	vadd.f32	s12, s12, s14
	.loc 1 163 9 view .LVU198
	vadd.f32	s12, s12, s15
.LVL51:
.LBB42:
.LBI42:
	.loc 1 31 7 is_stmt 1 view .LVU199
.LBB43:
	.loc 1 33 2 view .LVU200
	.loc 1 34 2 view .LVU201
	.loc 1 35 2 view .LVU202
	.loc 1 37 2 view .LVU203
	.loc 1 37 5 is_stmt 0 view .LVU204
	vcmpe.f32	s12, #0
	vmrs	APSR_nzcv, FPSCR
	bls	.L79
	.loc 1 42 2 is_stmt 1 view .LVU205
	.loc 1 45 11 is_stmt 0 view .LVU206
	vldr.32	s11, .L80
	.loc 1 42 4 view .LVU207
	vmov.f32	s0, #5.0e-1
	.loc 1 45 11 view .LVU208
	vmul.f32	s11, s12, s11
	.loc 1 42 4 view .LVU209
	vmul.f32	s0, s12, s0
.LVL52:
	.loc 1 45 2 is_stmt 1 view .LVU210
	.loc 1 45 2 is_stmt 0 view .LVU211
	vneg.f32	s10, s11
.L77:
	.loc 1 47 2 is_stmt 1 view .LVU212
	.loc 1 48 3 view .LVU213
	.loc 1 48 14 is_stmt 0 view .LVU214
	vmul.f32	s15, s0, s0
	.loc 1 49 19 view .LVU215
	vadd.f32	s13, s0, s0
	.loc 1 48 9 view .LVU216
	vsub.f32	s15, s15, s12
.LVL53:
	.loc 1 49 3 is_stmt 1 view .LVU217
	.loc 1 49 14 is_stmt 0 view .LVU218
	vdiv.f32	s14, s15, s13
	.loc 1 50 28 view .LVU219
	vcmpe.f32	s11, s15
	vmrs	APSR_nzcv, FPSCR
	.loc 1 49 5 view .LVU220
	vsub.f32	s0, s0, s14
.LVL54:
	.loc 1 50 28 is_stmt 1 view .LVU221
	bmi	.L77
	vcmpe.f32	s15, s10
	vmrs	APSR_nzcv, FPSCR
	bmi	.L77
	bx	lr
.LVL55:
.L79:
	.loc 1 38 10 is_stmt 0 view .LVU222
	vldr.32	s0, .L80+4
.LVL56:
	.loc 1 38 10 view .LVU223
.LBE43:
.LBE42:
	.loc 1 164 1 view .LVU224
	bx	lr
.L81:
	.align	2
.L80:
	.word	981668463
	.word	0
	.cfi_endproc
.LFE152:
	.size	NormOf3d, .-NormOf3d
	.section	.text.Cross3d,"ax",%progbits
	.align	1
	.p2align 2,,3
	.global	Cross3d
	.syntax unified
	.thumb
	.thumb_func
	.type	Cross3d, %function
Cross3d:
.LVL57:
.LFB153:
	.loc 1 168 1 is_stmt 1 view -0
	.cfi_startproc
	@ args = 0, pretend = 0, frame = 0
	@ frame_needed = 0, uses_anonymous_args = 0
	@ link register save eliminated.
	.loc 1 169 2 view .LVU226
	.loc 1 169 17 is_stmt 0 view .LVU227
	vldr.32	s12, [r1, #8]
	.loc 1 169 33 view .LVU228
	vldr.32	s13, [r1, #4]
	.loc 1 169 17 view .LVU229
	vldr.32	s15, [r0, #4]
	.loc 1 169 33 view .LVU230
	vldr.32	s14, [r0, #8]
	.loc 1 169 17 view .LVU231
	vmul.f32	s15, s15, s12
	.loc 1 169 33 view .LVU232
	vmul.f32	s14, s14, s13
	.loc 1 169 25 view .LVU233
	vsub.f32	s15, s15, s14
	.loc 1 169 9 view .LVU234
	vstr.32	s15, [r2]
	.loc 1 170 2 is_stmt 1 view .LVU235
	.loc 1 170 17 is_stmt 0 view .LVU236
	vldr.32	s12, [r1]
	.loc 1 170 33 view .LVU237
	vldr.32	s13, [r1, #8]
	.loc 1 170 17 view .LVU238
	vldr.32	s15, [r0, #8]
	.loc 1 170 33 view .LVU239
	vldr.32	s14, [r0]
	.loc 1 170 17 view .LVU240
	vmul.f32	s15, s15, s12
	.loc 1 170 33 view .LVU241
	vmul.f32	s14, s14, s13
	.loc 1 170 25 view .LVU242
	vsub.f32	s15, s15, s14
	.loc 1 170 9 view .LVU243
	vstr.32	s15, [r2, #4]
	.loc 1 171 2 is_stmt 1 view .LVU244
	.loc 1 171 17 is_stmt 0 view .LVU245
	vldr.32	s15, [r0]
	vldr.32	s12, [r1, #4]
	.loc 1 171 33 view .LVU246
	vldr.32	s14, [r0, #4]
	vldr.32	s13, [r1]
	.loc 1 171 17 view .LVU247
	vmul.f32	s15, s15, s12
	.loc 1 171 33 view .LVU248
	vmul.f32	s14, s14, s13
	.loc 1 171 25 view .LVU249
	vsub.f32	s15, s15, s14
	.loc 1 171 9 view .LVU250
	vstr.32	s15, [r2, #8]
	.loc 1 172 1 view .LVU251
	bx	lr
	.cfi_endproc
.LFE153:
	.size	Cross3d, .-Cross3d
	.section	.text.Dot3d,"ax",%progbits
	.align	1
	.p2align 2,,3
	.global	Dot3d
	.syntax unified
	.thumb
	.thumb_func
	.type	Dot3d, %function
Dot3d:
.LVL58:
.LFB154:
	.loc 1 176 1 is_stmt 1 view -0
	.cfi_startproc
	@ args = 0, pretend = 0, frame = 0
	@ frame_needed = 0, uses_anonymous_args = 0
	@ link register save eliminated.
	.loc 1 177 2 view .LVU253
	.loc 1 177 31 is_stmt 0 view .LVU254
	vldr.32	s13, [r1, #4]
	.loc 1 177 15 view .LVU255
	vldr.32	s15, [r0]
	vldr.32	s12, [r1]
	.loc 1 177 31 view .LVU256
	vldr.32	s14, [r0, #4]
	.loc 1 177 47 view .LVU257
	vldr.32	s0, [r0, #8]
	.loc 1 177 31 view .LVU258
	vmul.f32	s14, s14, s13
	.loc 1 177 15 view .LVU259
	vmul.f32	s15, s15, s12
	.loc 1 177 47 view .LVU260
	vldr.32	s13, [r1, #8]
	.loc 1 177 23 view .LVU261
	vadd.f32	s15, s15, s14
	.loc 1 177 47 view .LVU262
	vmul.f32	s0, s0, s13
	.loc 1 178 1 view .LVU263
	vadd.f32	s0, s15, s0
	bx	lr
	.cfi_endproc
.LFE154:
	.size	Dot3d, .-Dot3d
	.section	.text.AverageFilter,"ax",%progbits
	.align	1
	.p2align 2,,3
	.global	AverageFilter
	.syntax unified
	.thumb
	.thumb_func
	.type	AverageFilter, %function
AverageFilter:
.LVL59:
.LFB155:
	.loc 1 182 1 is_stmt 1 view -0
	.cfi_startproc
	@ args = 0, pretend = 0, frame = 0
	@ frame_needed = 0, uses_anonymous_args = 0
	@ link register save eliminated.
	.loc 1 183 2 view .LVU265
	.loc 1 184 2 view .LVU266
.LBB44:
	.loc 1 184 7 view .LVU267
	.loc 1 184 24 view .LVU268
	.loc 1 184 30 is_stmt 0 view .LVU269
	subs	r3, r1, #1
	.loc 1 184 24 view .LVU270
	cmp	r3, #0
.LBE44:
	.loc 1 183 8 view .LVU271
	vldr.32	s14, .L89
.LBB45:
	.loc 1 184 24 view .LVU272
	ble	.L85
	adds	r3, r0, #4
	add	r2, r0, r1, lsl #2
.LVL60:
.L86:
	.loc 1 185 3 is_stmt 1 discriminator 3 view .LVU273
	.loc 1 185 15 is_stmt 0 discriminator 3 view .LVU274
	vldmia.32	r3!, {s15}
	.loc 1 184 24 discriminator 3 view .LVU275
	cmp	r2, r3
	.loc 1 186 7 discriminator 3 view .LVU276
	vadd.f32	s14, s14, s15
.LVL61:
	.loc 1 185 10 discriminator 3 view .LVU277
	vstr.32	s15, [r3, #-8]
	.loc 1 186 3 is_stmt 1 discriminator 3 view .LVU278
.LVL62:
	.loc 1 184 36 discriminator 3 view .LVU279
	.loc 1 184 24 discriminator 3 view .LVU280
	bne	.L86
.LVL63:
.L85:
	.loc 1 184 24 is_stmt 0 discriminator 3 view .LVU281
.LBE45:
	.loc 1 188 2 is_stmt 1 view .LVU282
	.loc 1 190 13 is_stmt 0 view .LVU283
	vmov	s15, r1	@ int
	.loc 1 189 6 view .LVU284
	vadd.f32	s14, s0, s14
	.loc 1 190 13 view .LVU285
	vcvt.f32.s32	s15, s15
	.loc 1 188 15 view .LVU286
	add	r0, r0, r1, lsl #2
.LVL64:
	.loc 1 188 15 view .LVU287
	vstr.32	s0, [r0, #-4]
	.loc 1 189 2 is_stmt 1 view .LVU288
.LVL65:
	.loc 1 190 2 view .LVU289
	.loc 1 191 1 is_stmt 0 view .LVU290
	vdiv.f32	s0, s14, s15
.LVL66:
	.loc 1 191 1 view .LVU291
	bx	lr
.L90:
	.align	2
.L89:
	.word	0
	.cfi_endproc
.LFE155:
	.size	AverageFilter, .-AverageFilter
	.section	.text.MatInit,"ax",%progbits
	.align	1
	.p2align 2,,3
	.global	MatInit
	.syntax unified
	.thumb
	.thumb_func
	.type	MatInit, %function
MatInit:
.LVL67:
.LFB156:
	.loc 1 194 1 is_stmt 1 view -0
	.cfi_startproc
	@ args = 0, pretend = 0, frame = 0
	@ frame_needed = 0, uses_anonymous_args = 0
	.loc 1 195 2 view .LVU293
	.loc 1 194 1 is_stmt 0 view .LVU294
	push	{r4, r5, r6, lr}
	.cfi_def_cfa_offset 16
	.cfi_offset 4, -16
	.cfi_offset 5, -12
	.cfi_offset 6, -8
	.cfi_offset 14, -4
	.loc 1 197 34 view .LVU295
	smulbb	r5, r1, r2
	.loc 1 197 22 view .LVU296
	lsls	r5, r5, #2
	.loc 1 195 13 view .LVU297
	strh	r2, [r0, #2]	@ movhi
	.loc 1 196 2 is_stmt 1 view .LVU298
	.loc 1 196 13 is_stmt 0 view .LVU299
	strh	r1, [r0]	@ movhi
	.loc 1 197 2 is_stmt 1 view .LVU300
.LVL68:
.LBB46:
.LBI46:
	.loc 1 23 7 view .LVU301
.LBB47:
	.loc 1 25 2 view .LVU302
.LBE47:
.LBE46:
	.loc 1 194 1 is_stmt 0 view .LVU303
	mov	r4, r0
.LBB49:
.LBB48:
	.loc 1 25 14 view .LVU304
	mov	r0, r5
.LVL69:
	.loc 1 25 14 view .LVU305
	bl	malloc
.LVL70:
	.loc 1 26 2 view .LVU306
	mov	r2, r5
	.loc 1 25 14 view .LVU307
	mov	r6, r0
.LVL71:
	.loc 1 26 2 is_stmt 1 view .LVU308
	movs	r1, #0
	bl	memset
.LVL72:
	.loc 1 27 2 view .LVU309
	.loc 1 27 2 is_stmt 0 view .LVU310
.LBE48:
.LBE49:
	.loc 1 197 11 view .LVU311
	str	r6, [r4, #4]
	.loc 1 198 1 view .LVU312
	pop	{r4, r5, r6, pc}
	.loc 1 198 1 view .LVU313
	.cfi_endproc
.LFE156:
	.size	MatInit, .-MatInit
	.section	.text.GetGroundAccel,"ax",%progbits
	.align	1
	.p2align 2,,3
	.global	GetGroundAccel
	.syntax unified
	.thumb
	.thumb_func
	.type	GetGroundAccel, %function
GetGroundAccel:
.LVL73:
.LFB157:
	.loc 1 201 1 is_stmt 1 view -0
	.cfi_startproc
	@ args = 0, pretend = 0, frame = 0
	@ frame_needed = 0, uses_anonymous_args = 0
	@ link register save eliminated.
	.loc 1 203 2 view .LVU315
	.loc 1 204 2 view .LVU316
	.loc 1 204 36 is_stmt 0 view .LVU317
	vldr.32	s3, [r0, #12]
	.loc 1 204 22 view .LVU318
	vldr.32	s14, [r0, #8]
	.loc 1 205 18 view .LVU319
	vldr.32	s10, [r0, #4]
	.loc 1 205 32 view .LVU320
	vldr.32	s2, [r0]
	.loc 1 217 28 view .LVU321
	vldr.32	s4, [r1]
	.loc 1 217 49 view .LVU322
	vldr.32	s5, [r1, #4]
	.loc 1 204 26 view .LVU323
	vmul.f32	s8, s14, s14
	.loc 1 204 40 view .LVU324
	vmul.f32	s13, s3, s3
.LVL74:
	.loc 1 205 2 is_stmt 1 view .LVU325
	.loc 1 205 22 is_stmt 0 view .LVU326
	vmul.f32	s11, s14, s10
	.loc 1 205 36 view .LVU327
	vmul.f32	s1, s3, s2
.LVL75:
	.loc 1 206 2 is_stmt 1 view .LVU328
	.loc 1 204 33 is_stmt 0 view .LVU329
	vadd.f32	s12, s8, s13
	.loc 1 205 29 view .LVU330
	vsub.f32	s7, s11, s1
	.loc 1 204 18 view .LVU331
	vadd.f32	s12, s12, s12
	.loc 1 204 14 view .LVU332
	vmov.f32	s9, #1.0e+0
	.loc 1 206 22 view .LVU333
	vmul.f32	s15, s3, s10
	.loc 1 206 36 view .LVU334
	vmul.f32	s6, s14, s2
.LVL76:
	.loc 1 208 2 is_stmt 1 view .LVU335
	.loc 1 209 2 view .LVU336
	.loc 1 204 14 is_stmt 0 view .LVU337
	vsub.f32	s12, s9, s12
.LVL77:
	.loc 1 205 14 view .LVU338
	vadd.f32	s7, s7, s7
.LVL78:
	.loc 1 217 28 view .LVU339
	vmul.f32	s12, s12, s4
.LVL79:
	.loc 1 217 49 view .LVU340
	vmul.f32	s5, s7, s5
	.loc 1 206 29 view .LVU341
	vadd.f32	s7, s15, s6
.LVL80:
	.loc 1 217 39 view .LVU342
	vadd.f32	s12, s12, s5
	.loc 1 206 14 view .LVU343
	vadd.f32	s7, s7, s7
.LVL81:
	.loc 1 217 70 view .LVU344
	vldr.32	s5, [r1, #8]
	.loc 1 209 26 view .LVU345
	vmul.f32	s4, s10, s10
.LVL82:
	.loc 1 210 2 is_stmt 1 view .LVU346
	.loc 1 217 70 is_stmt 0 view .LVU347
	vmul.f32	s7, s7, s5
.LVL83:
	.loc 1 209 33 view .LVU348
	vadd.f32	s13, s13, s4
.LVL84:
	.loc 1 217 60 view .LVU349
	vadd.f32	s12, s12, s7
	.loc 1 210 22 view .LVU350
	vmul.f32	s14, s14, s3
	.loc 1 210 36 view .LVU351
	vmul.f32	s10, s10, s2
.LVL85:
	.loc 1 212 2 is_stmt 1 view .LVU352
	.loc 1 213 2 view .LVU353
	.loc 1 214 2 view .LVU354
	.loc 1 217 2 view .LVU355
	.loc 1 209 18 is_stmt 0 view .LVU356
	vadd.f32	s13, s13, s13
	.loc 1 208 29 view .LVU357
	vadd.f32	s11, s11, s1
.LVL86:
	.loc 1 217 18 view .LVU358
	vstr.32	s12, [r2]
.LVL87:
	.loc 1 218 2 is_stmt 1 view .LVU359
	.loc 1 218 49 is_stmt 0 view .LVU360
	vldr.32	s3, [r1, #4]
.LVL88:
	.loc 1 218 28 view .LVU361
	vldr.32	s5, [r1]
	.loc 1 218 70 view .LVU362
	vldr.32	s7, [r1, #8]
	.loc 1 210 29 view .LVU363
	vsub.f32	s12, s14, s10
	.loc 1 209 14 view .LVU364
	vsub.f32	s13, s9, s13
.LVL89:
	.loc 1 208 14 view .LVU365
	vadd.f32	s11, s11, s11
.LVL90:
	.loc 1 218 49 view .LVU366
	vmul.f32	s13, s13, s3
.LVL91:
	.loc 1 218 28 view .LVU367
	vmul.f32	s11, s11, s5
.LVL92:
	.loc 1 210 14 view .LVU368
	vadd.f32	s12, s12, s12
.LVL93:
	.loc 1 218 39 view .LVU369
	vadd.f32	s13, s13, s11
	.loc 1 218 70 view .LVU370
	vmul.f32	s12, s12, s7
.LVL94:
	.loc 1 213 29 view .LVU371
	vadd.f32	s14, s14, s10
.LVL95:
	.loc 1 218 60 view .LVU372
	vadd.f32	s13, s13, s12
	.loc 1 212 29 view .LVU373
	vsub.f32	s15, s15, s6
.LVL96:
	.loc 1 214 33 view .LVU374
	vadd.f32	s12, s8, s4
	.loc 1 218 18 view .LVU375
	vstr.32	s13, [r2, #4]
	.loc 1 219 2 is_stmt 1 view .LVU376
	.loc 1 223 2 view .LVU377
	.loc 1 219 28 is_stmt 0 view .LVU378
	vldr.32	s10, [r1]
	.loc 1 219 49 view .LVU379
	vldr.32	s11, [r1, #4]
	.loc 1 219 70 view .LVU380
	vldr.32	s13, [r1, #8]
	.loc 1 212 14 view .LVU381
	vadd.f32	s15, s15, s15
.LVL97:
	.loc 1 213 14 view .LVU382
	vadd.f32	s14, s14, s14
.LVL98:
	.loc 1 214 18 view .LVU383
	vadd.f32	s12, s12, s12
	.loc 1 219 28 view .LVU384
	vmul.f32	s15, s15, s10
.LVL99:
	.loc 1 219 49 view .LVU385
	vmul.f32	s14, s14, s11
.LVL100:
	.loc 1 214 14 view .LVU386
	vsub.f32	s9, s9, s12
	.loc 1 219 39 view .LVU387
	vadd.f32	s15, s15, s14
	.loc 1 219 70 view .LVU388
	vmul.f32	s9, s9, s13
	.loc 1 219 60 view .LVU389
	vadd.f32	s15, s15, s9
	.loc 1 223 18 view .LVU390
	vsub.f32	s15, s15, s0
	vstr.32	s15, [r2, #8]
	.loc 1 224 1 view .LVU391
	bx	lr
	.cfi_endproc
.LFE157:
	.size	GetGroundAccel, .-GetGroundAccel
	.section	.text.GetDeviceAccel,"ax",%progbits
	.align	1
	.p2align 2,,3
	.global	GetDeviceAccel
	.syntax unified
	.thumb
	.thumb_func
	.type	GetDeviceAccel, %function
GetDeviceAccel:
.LVL101:
.LFB158:
	.loc 1 227 1 is_stmt 1 view -0
	.cfi_startproc
	@ args = 0, pretend = 0, frame = 0
	@ frame_needed = 0, uses_anonymous_args = 0
	@ link register save eliminated.
	.loc 1 229 2 view .LVU393
	.loc 1 231 2 view .LVU394
	.loc 1 231 36 is_stmt 0 view .LVU395
	vldr.32	s12, [r0, #12]
	.loc 1 232 18 view .LVU396
	vldr.32	s13, [r0, #4]
	.loc 1 231 22 view .LVU397
	vldr.32	s14, [r0, #8]
	.loc 1 232 32 view .LVU398
	vldr.32	s9, [r0]
	.loc 1 245 30 view .LVU399
	vldr.32	s3, [r1]
	.loc 1 247 34 view .LVU400
	vldr.32	s2, [r1, #8]
	.loc 1 236 26 view .LVU401
	vmul.f32	s8, s13, s13
	.loc 1 231 26 view .LVU402
	vmul.f32	s7, s14, s14
	.loc 1 231 40 view .LVU403
	vmul.f32	s15, s12, s12
.LVL102:
	.loc 1 232 2 is_stmt 1 view .LVU404
	.loc 1 232 36 is_stmt 0 view .LVU405
	vmul.f32	s6, s12, s9
	.loc 1 233 36 view .LVU406
	vmul.f32	s4, s14, s9
	.loc 1 232 22 view .LVU407
	vmul.f32	s10, s14, s13
.LVL103:
	.loc 1 233 2 is_stmt 1 view .LVU408
	.loc 1 233 22 is_stmt 0 view .LVU409
	vmul.f32	s11, s12, s13
.LVL104:
	.loc 1 235 2 is_stmt 1 view .LVU410
	.loc 1 236 2 view .LVU411
	.loc 1 237 2 view .LVU412
	.loc 1 237 22 is_stmt 0 view .LVU413
	vmul.f32	s14, s14, s12
	.loc 1 237 36 view .LVU414
	vmul.f32	s9, s13, s9
.LVL105:
	.loc 1 239 2 is_stmt 1 view .LVU415
	.loc 1 240 2 view .LVU416
	.loc 1 241 2 view .LVU417
	.loc 1 244 2 view .LVU418
	.loc 1 245 2 view .LVU419
	.loc 1 246 2 view .LVU420
	.loc 1 231 33 is_stmt 0 view .LVU421
	vadd.f32	s13, s7, s15
	.loc 1 236 33 view .LVU422
	vadd.f32	s15, s15, s8
.LVL106:
	.loc 1 232 29 view .LVU423
	vsub.f32	s5, s10, s6
	.loc 1 239 29 view .LVU424
	vsub.f32	s12, s11, s4
.LVL107:
	.loc 1 235 29 view .LVU425
	vadd.f32	s10, s10, s6
.LVL108:
	.loc 1 241 33 view .LVU426
	vadd.f32	s7, s7, s8
.LVL109:
	.loc 1 240 29 view .LVU427
	vadd.f32	s6, s14, s9
.LVL110:
	.loc 1 231 18 view .LVU428
	vadd.f32	s13, s13, s13
	.loc 1 236 18 view .LVU429
	vadd.f32	s15, s15, s15
	.loc 1 231 14 view .LVU430
	vmov.f32	s8, #1.0e+0
.LVL111:
	.loc 1 233 29 view .LVU431
	vadd.f32	s11, s11, s4
.LVL112:
	.loc 1 231 14 view .LVU432
	vsub.f32	s13, s8, s13
.LVL113:
	.loc 1 246 16 view .LVU433
	vldr.32	s4, [r1, #4]
.LVL114:
	.loc 1 247 2 is_stmt 1 view .LVU434
	.loc 1 236 14 is_stmt 0 view .LVU435
	vsub.f32	s15, s8, s15
.LVL115:
	.loc 1 232 14 view .LVU436
	vadd.f32	s5, s5, s5
.LVL116:
	.loc 1 235 14 view .LVU437
	vadd.f32	s10, s10, s10
.LVL117:
	.loc 1 237 29 view .LVU438
	vsub.f32	s14, s14, s9
.LVL118:
	.loc 1 239 14 view .LVU439
	vadd.f32	s12, s12, s12
.LVL119:
	.loc 1 240 14 view .LVU440
	vadd.f32	s6, s6, s6
.LVL120:
	.loc 1 241 18 view .LVU441
	vadd.f32	s7, s7, s7
	.loc 1 247 34 view .LVU442
	vadd.f32	s0, s0, s2
.LVL121:
	.loc 1 250 2 is_stmt 1 view .LVU443
	.loc 1 251 11 is_stmt 0 view .LVU444
	vmul.f32	s13, s13, s3
.LVL122:
	.loc 1 251 37 view .LVU445
	vmul.f32	s5, s5, s4
.LVL123:
	.loc 1 233 14 view .LVU446
	vadd.f32	s11, s11, s11
.LVL124:
	.loc 1 253 37 view .LVU447
	vmul.f32	s15, s15, s4
.LVL125:
	.loc 1 253 11 view .LVU448
	vmul.f32	s10, s10, s3
.LVL126:
	.loc 1 237 14 view .LVU449
	vadd.f32	s14, s14, s14
.LVL127:
	.loc 1 255 11 view .LVU450
	vmul.f32	s12, s12, s3
.LVL128:
	.loc 1 255 37 view .LVU451
	vmul.f32	s6, s6, s4
.LVL129:
	.loc 1 241 14 view .LVU452
	vsub.f32	s8, s8, s7
	.loc 1 251 27 view .LVU453
	vadd.f32	s13, s13, s5
	.loc 1 251 63 view .LVU454
	vmul.f32	s11, s11, s0
.LVL130:
	.loc 1 253 27 view .LVU455
	vadd.f32	s15, s15, s10
	.loc 1 253 63 view .LVU456
	vmul.f32	s14, s14, s0
.LVL131:
	.loc 1 255 27 view .LVU457
	vadd.f32	s12, s12, s6
	.loc 1 255 63 view .LVU458
	vmul.f32	s8, s8, s0
	.loc 1 251 53 view .LVU459
	vadd.f32	s13, s13, s11
	.loc 1 253 53 view .LVU460
	vadd.f32	s15, s15, s14
	.loc 1 255 53 view .LVU461
	vadd.f32	s12, s12, s8
	.loc 1 250 18 view .LVU462
	vstr.32	s13, [r2]
.LVL132:
	.loc 1 252 2 is_stmt 1 view .LVU463
	.loc 1 252 18 is_stmt 0 view .LVU464
	vstr.32	s15, [r2, #4]
	.loc 1 254 2 is_stmt 1 view .LVU465
	.loc 1 254 18 is_stmt 0 view .LVU466
	vstr.32	s12, [r2, #8]
	.loc 1 256 1 view .LVU467
	bx	lr
	.cfi_endproc
.LFE158:
	.size	GetDeviceAccel, .-GetDeviceAccel
	.section	.bss.integer.1,"aw",%nobits
	.align	2
	.type	integer.1, %object
	.size	integer.1, 4
integer.1:
	.space	4
	.text
.Letext0:
	.file 2 "/home/librgod/zephyr-sdk-0.17.0/arm-zephyr-eabi/picolibc/include/machine/_default_types.h"
	.file 3 "/home/librgod/zephyr-sdk-0.17.0/arm-zephyr-eabi/lib/gcc/arm-zephyr-eabi/12.2.0/include/stddef.h"
	.file 4 "/home/librgod/zephyr-sdk-0.17.0/arm-zephyr-eabi/picolibc/include/sys/_stdint.h"
	.file 5 "/home/librgod/zephyr_workspace/modules/lib/cmsis-dsp/Include/arm_math_types.h"
	.file 6 "/home/librgod/zephyr_workspace/modules/lib/cmsis-dsp/Include/dsp/matrix_functions.h"
	.file 7 "/home/librgod/zephyr-sdk-0.17.0/arm-zephyr-eabi/picolibc/include/string.h"
	.file 8 "/home/librgod/zephyr-sdk-0.17.0/arm-zephyr-eabi/picolibc/include/stdlib.h"