	.cpu cortex-m4
	.arch armv7e-m
	.fpu fpv4-sp-d16
	.eabi_attribute 27, 1
	.eabi_attribute 28, 1
	.eabi_attribute 20, 1
	.eabi_attribute 21, 1
	.eabi_attribute 23, 3
	.eabi_attribute 24, 1
	.eabi_attribute 25, 1
	.eabi_attribute 26, 1
	.eabi_attribute 30, 2
	.eabi_attribute 34, 1
	.eabi_attribute 38, 1
	.eabi_attribute 18, 4
	.file	"imu_task.c"
	.text
.Ltext0:
	.cfi_sections	.debug_frame
	.file 1 "/home/librgod/zephyr_workspace/motor/include/ares/ekf/imu_task.c"
	.section	.text.z_log_msg_runtime_create.constprop.0,"ax",%progbits
	.align	1
	.p2align 2,,3
	.syntax unified
	.thumb
	.thumb_func
	.type	z_log_msg_runtime_create.constprop.0, %function
z_log_msg_runtime_create.constprop.0:
.LVL0:
.LFB792:
	.file 2 "/home/librgod/zephyr_workspace/zephyr/include/zephyr/logging/log_msg.h"
	.loc 2 702 20 view -0
	.cfi_startproc
	@ args = 12, pretend = 0, frame = 8
	@ frame_needed = 0, uses_anonymous_args = 1
	.loc 2 708 2 view .LVU1
	.loc 2 710 1 view .LVU2
	.loc 2 702 20 is_stmt 0 view .LVU3
	push	{r4, lr}
	.cfi_def_cfa_offset 8
	.cfi_offset 4, -8
	.cfi_offset 14, -4
	sub	sp, sp, #24
	.cfi_def_cfa_offset 32
	.loc 2 711 2 view .LVU4
	movs	r3, #0
.LVL1:
	.loc 2 702 20 view .LVU5
	ldr	r2, [sp, #40]
.LVL2:
	.loc 2 710 1 view .LVU6
	add	r4, sp, #44
	.loc 2 711 2 view .LVU7
	strd	r2, r4, [sp, #8]
	strd	r3, r3, [sp]
	movs	r2, #3
	mov	r0, r3
.LVL3:
	.loc 2 710 1 view .LVU8
	str	r4, [sp, #20]
	.loc 2 711 2 is_stmt 1 view .LVU9
	bl	z_log_msg_runtime_vcreate
.LVL4:
	.loc 2 713 1 view .LVU10
	.loc 2 714 1 is_stmt 0 view .LVU11
	add	sp, sp, #24
	.cfi_def_cfa_offset 8
	@ sp needed
	pop	{r4, pc}
	.loc 2 714 1 view .LVU12
	.cfi_endproc
.LFE792:
	.size	z_log_msg_runtime_create.constprop.0, .-z_log_msg_runtime_create.constprop.0
	.section	.text.z_log_msg_runtime_create.constprop.1,"ax",%progbits
	.align	1
	.p2align 2,,3
	.syntax unified
	.thumb
	.thumb_func
	.type	z_log_msg_runtime_create.constprop.1, %function
z_log_msg_runtime_create.constprop.1:
.LVL5:
.LFB793:
	.loc 2 702 20 is_stmt 1 view -0
	.cfi_startproc
	@ args = 12, pretend = 0, frame = 8
	@ frame_needed = 0, uses_anonymous_args = 1
	.loc 2 708 2 view .LVU14
	.loc 2 710 1 view .LVU15
	.loc 2 702 20 is_stmt 0 view .LVU16
	push	{r4, lr}
	.cfi_def_cfa_offset 8
	.cfi_offset 4, -8
	.cfi_offset 14, -4
	sub	sp, sp, #24
	.cfi_def_cfa_offset 32
	.loc 2 711 2 view .LVU17
	movs	r3, #0
.LVL6:
	.loc 2 702 20 view .LVU18
	ldr	r0, [sp, #40]
.LVL7:
	.loc 2 710 1 view .LVU19
	add	r4, sp, #44
	.loc 2 711 2 view .LVU20
	strd	r0, r4, [sp, #8]
	strd	r3, r3, [sp]
	mov	r0, r3
	.loc 2 710 1 view .LVU21
	str	r4, [sp, #20]
	.loc 2 711 2 is_stmt 1 view .LVU22
	bl	z_log_msg_runtime_vcreate
.LVL8:
	.loc 2 713 1 view .LVU23
	.loc 2 714 1 is_stmt 0 view .LVU24
	add	sp, sp, #24
	.cfi_def_cfa_offset 8
	@ sp needed
	pop	{r4, pc}
	.loc 2 714 1 view .LVU25
	.cfi_endproc
.LFE793:
	.size	z_log_msg_runtime_create.constprop.1, .-z_log_msg_runtime_create.constprop.1
	.global	__aeabi_i2d
	.global	__aeabi_ddiv
	.global	__aeabi_dadd
	.global	__aeabi_d2f
	.section	.text.IMU_temp_read,"ax",%progbits
	.align	1
	.p2align 2,,3
	.global	IMU_temp_read
	.syntax unified
	.thumb
	.thumb_func
	.type	IMU_temp_read, %function
IMU_temp_read:
.LVL9:
.LFB781:
	.loc 1 60 1 is_stmt 1 view -0
	.cfi_startproc
	@ args = 0, pretend = 0, frame = 8
	@ frame_needed = 0, uses_anonymous_args = 0
	.loc 1 61 2 view .LVU27
	.loc 1 62 2 view .LVU28
	.loc 1 60 1 is_stmt 0 view .LVU29
	push	{r4, r5, lr}
	.cfi_def_cfa_offset 12
	.cfi_offset 4, -12
	.cfi_offset 5, -8
	.cfi_offset 14, -4
	sub	sp, sp, #12
	.cfi_def_cfa_offset 24
.LVL10:
.LBB248:
.LBI248:
	.file 3 "/home/librgod/zephyr_workspace/motor/app/build/zephyr/include/generated/zephyr/syscalls/sensor.h"
	.loc 3 125 19 is_stmt 1 view .LVU30
.LBB249:
	.loc 3 135 2 view .LVU31
	.loc 3 135 7 view .LVU32
	.loc 3 135 5 view .LVU33
	.loc 3 136 2 view .LVU34
.LVL11:
.LBB250:
.LBI250:
	.file 4 "/home/librgod/zephyr_workspace/zephyr/include/zephyr/drivers/sensor.h"
	.loc 4 906 19 view .LVU35
.LBB251:
	.loc 4 910 2 view .LVU36
	.loc 4 913 2 view .LVU37
	.loc 4 913 12 is_stmt 0 view .LVU38
	ldr	r3, [r0, #8]
	.loc 4 913 9 view .LVU39
	mov	r2, sp
	ldr	r3, [r3, #16]
	movs	r1, #12
	blx	r3
.LVL12:
	.loc 4 913 9 view .LVU40
.LBE251:
.LBE250:
.LBE249:
.LBE248:
	.loc 1 63 2 is_stmt 1 view .LVU41
.LBB252:
.LBI252:
	.loc 4 1323 22 view .LVU42
.LBB253:
	.loc 4 1325 2 view .LVU43
	.loc 4 1325 29 is_stmt 0 view .LVU44
	ldr	r0, [sp, #4]
	bl	__aeabi_i2d
.LVL13:
	.loc 4 1325 47 view .LVU45
	adr	r3, .L8+4
	ldrd	r2, [r3]
	bl	__aeabi_ddiv
.LVL14:
	mov	r4, r0
	.loc 4 1325 9 view .LVU46
	ldr	r0, [sp]
	.loc 4 1325 47 view .LVU47
	mov	r5, r1
	.loc 4 1325 9 view .LVU48
	bl	__aeabi_i2d
.LVL15:
	mov	r2, r0
	mov	r3, r1
	.loc 4 1325 27 view .LVU49
	mov	r0, r4
	mov	r1, r5
	bl	__aeabi_dadd
.LVL16:
.LBE253:
.LBE252:
	.loc 1 63 17 view .LVU50
	bl	__aeabi_d2f
.LVL17:
	.loc 1 63 15 view .LVU51
	ldr	r3, .L8
	.loc 1 63 17 view .LVU52
	vmov	s0, r0
	.loc 1 63 15 view .LVU53
	str	r0, [r3]	@ float
	.loc 1 64 2 is_stmt 1 view .LVU54
	.loc 1 65 1 is_stmt 0 view .LVU55
	add	sp, sp, #12
	.cfi_def_cfa_offset 12
	@ sp needed
	pop	{r4, r5, pc}
.L9:
	.align	3
.L8:
	.word	current_temp
	.word	0
	.word	1093567616
	.cfi_endproc
.LFE781:
	.size	IMU_temp_read, .-IMU_temp_read
	.global	__aeabi_uldivmod
	.section	.text.IMU_temp_pwm_set,"ax",%progbits
	.align	1
	.p2align 2,,3
	.global	IMU_temp_pwm_set
	.syntax unified
	.thumb
	.thumb_func
	.type	IMU_temp_pwm_set, %function
IMU_temp_pwm_set:
.LVL18:
.LFB782:
	.loc 1 68 1 is_stmt 1 view -0
	.cfi_startproc
	@ args = 0, pretend = 0, frame = 16
	@ frame_needed = 0, uses_anonymous_args = 0
	.loc 1 70 2 view .LVU57
	.loc 1 68 1 is_stmt 0 view .LVU58
	push	{r4, r5, r6, r7, r8, r9, r10, fp, lr}
	.cfi_def_cfa_offset 36
	.cfi_offset 4, -36
	.cfi_offset 5, -32
	.cfi_offset 6, -28
	.cfi_offset 7, -24
	.cfi_offset 8, -20
	.cfi_offset 9, -16
	.cfi_offset 10, -12
	.cfi_offset 11, -8
	.cfi_offset 14, -4
	vpush.64	{d8}
	.cfi_def_cfa_offset 44
	.cfi_offset 80, -44
	.cfi_offset 81, -40
	.loc 1 70 2 view .LVU59
	ldr	r3, .L69+8
	ldr	r2, [r3]
.LVL19:
.LBB290:
.LBI290:
	.file 5 "/home/librgod/zephyr_workspace/motor/include/zephyr/drivers/pid.h"
	.loc 5 72 37 is_stmt 1 view .LVU60
.LBB291:
	.loc 5 74 2 view .LVU61
	.loc 5 74 23 is_stmt 0 view .LVU62
	ldr	r3, [r2, #28]
.LVL20:
	.loc 5 75 2 is_stmt 1 view .LVU63
.LBE291:
.LBE290:
	.loc 1 68 1 is_stmt 0 view .LVU64
	sub	sp, sp, #28
	.cfi_def_cfa_offset 72
.LBB301:
.LBB299:
	.loc 5 75 5 view .LVU65
	cmp	r3, #0
	beq	.L12
	.loc 5 78 2 is_stmt 1 view .LVU66
	.loc 5 79 10 is_stmt 0 view .LVU67
	ldr	r1, [r2, #4]
	.loc 5 78 27 view .LVU68
	ldr	r0, [r3, #4]
.LVL21:
	.loc 5 79 2 is_stmt 1 view .LVU69
	.loc 5 79 5 is_stmt 0 view .LVU70
	cmp	r1, #0
	beq	.L12
	.loc 5 82 2 is_stmt 1 view .LVU71
	.loc 5 86 238 is_stmt 0 view .LVU72
	ldrd	r3, r4, [r2, #32]
.LVL22:
	.loc 5 86 236 view .LVU73
	ldr	r5, [r4]
	ldr	r3, [r3]
	.loc 5 85 14 view .LVU74
	ldr	r4, [r2]
	.loc 5 82 8 view .LVU75
	vldr.32	s10, [r0]
.LVL23:
	.loc 5 83 2 is_stmt 1 view .LVU76
	.loc 5 85 14 is_stmt 0 view .LVU77
	vldr.32	s11, [r4]
	.loc 5 83 8 view .LVU78
	vldr.32	s13, [r0, #4]
.LVL24:
	.loc 5 84 2 is_stmt 1 view .LVU79
	.loc 5 84 8 is_stmt 0 view .LVU80
	vldr.32	s12, [r0, #8]
.LVL25:
	.loc 5 85 2 is_stmt 1 view .LVU81
	.loc 5 85 29 is_stmt 0 view .LVU82
	vldr.32	s14, [r1]
.LVL26:
	.loc 5 86 2 is_stmt 1 view .LVU83
	.loc 5 86 236 is_stmt 0 view .LVU84
	subs	r3, r3, r5
	.loc 5 86 8 view .LVU85
	cmn	r3, #85
	bls	.L66
	.loc 5 86 212 view .LVU86
	adds	r3, r3, #84
	.loc 5 86 159 view .LVU87
	mov	r5, #0
	.loc 5 86 212 view .LVU88
	adc	r5, r5, #0
	.loc 5 86 66 view .LVU89
	lsrs	r1, r3, #30
	orr	r1, r1, r5, lsl #2
	bic	r4, r3, #-1073741824
	add	r4, r4, r1
	ldr	r1, .L69+12
	umull	r6, r1, r1, r4
	subs	r6, r4, r1
	add	r1, r1, r6, lsr #1
	lsrs	r1, r1, #4
	add	r1, r1, r1, lsl #1
	rsb	r1, r1, r1, lsl #3
	subs	r4, r4, r1
	ldr	r1, .L69+16
	subs	r3, r3, r4
	ldr	r4, .L69+20
	mul	r1, r3, r1
	sbc	r5, r5, #0
	mla	r1, r4, r5, r1
	umull	r3, r4, r3, r4
	add	r1, r1, r4
	lsrs	r3, r3, #3
	orr	r3, r3, r1, lsl #29
	.loc 5 86 8 view .LVU90
	vmov	s15, r3	@ int
	vcvt.f32.s32	s15, s15
.L15:
.LVL27:
	.loc 5 87 2 is_stmt 1 view .LVU91
	.loc 5 87 5 is_stmt 0 view .LVU92
	vcmp.f32	s15, #0
	vmrs	APSR_nzcv, FPSCR
	beq	.L12
	.loc 5 91 6 view .LVU93
	vcmp.f32	s13, s13
	.loc 5 124 6 view .LVU94
	vmrs	APSR_nzcv, FPSCR
	.loc 5 85 8 view .LVU95
	vsub.f32	s11, s11, s14
.LVL28:
	.loc 5 90 2 is_stmt 1 view .LVU96
	.loc 5 124 3 view .LVU97
	.loc 5 92 8 is_stmt 0 view .LVU98
	vldr.32	s14, [r2, #16]
.LVL29:
	.loc 5 124 6 view .LVU99
	bne	.L27
.LVL30:
.LBB292:
.LBI292:
	.loc 5 67 12 is_stmt 1 view .LVU100
	.loc 5 69 2 view .LVU101
.LBB293:
.LBI293:
	.file 6 "/home/librgod/zephyr-sdk-0.17.0/arm-zephyr-eabi/picolibc/include/machine/math.h"
	.loc 6 180 1 view .LVU102
.LBB294:
	.loc 6 182 5 view .LVU103
	.loc 6 183 5 view .LVU104
	.syntax unified
@ 183 "/home/librgod/zephyr-sdk-0.17.0/arm-zephyr-eabi/picolibc/include/machine/math.h" 1
	vabs.f32	s8, s13
@ 0 "" 2
.LVL31:
	.loc 6 184 5 view .LVU105
	.loc 6 184 5 is_stmt 0 view .LVU106
	.thumb
	.syntax unified
.LBE294:
.LBE293:
.LBE292:
	.loc 5 124 18 view .LVU107
	vldr.32	s9, .L69+24
	vcmpe.f32	s8, s9
	vmrs	APSR_nzcv, FPSCR
	bpl	.L67
.LVL32:
.L27:
	.loc 5 134 3 is_stmt 1 view .LVU108
	.loc 5 134 6 is_stmt 0 view .LVU109
	vcmp.f32	s12, s12
	vmrs	APSR_nzcv, FPSCR
	beq	.L30
	.loc 5 140 32 view .LVU110
	vldr.32	s13, [r2, #20]
.LVL33:
.L31:
	.loc 5 147 3 is_stmt 1 view .LVU111
	.loc 5 147 9 is_stmt 0 view .LVU112
	ldr	r3, [r2, #40]
	.loc 5 147 31 view .LVU113
	vadd.f32	s15, s11, s14
	.loc 5 147 74 view .LVU114
	vldr.32	s14, [r0, #20]
	.loc 5 147 52 view .LVU115
	vadd.f32	s15, s15, s13
	.loc 5 147 24 view .LVU116
	vmul.f32	s15, s15, s10
	.loc 5 147 74 view .LVU117
	vadd.f32	s15, s15, s14
	.loc 5 147 19 view .LVU118
	vstr.32	s15, [r3]
.LVL34:
	.loc 5 149 3 is_stmt 1 view .LVU119
	.loc 5 149 15 is_stmt 0 view .LVU120
	vldr.32	s15, [r0, #16]
	.loc 5 149 6 view .LVU121
	vcmp.f32	s15, #0
	vmrs	APSR_nzcv, FPSCR
	beq	.L12
	.loc 5 150 19 view .LVU122
	ldr	r3, [r2, #40]
	.loc 5 150 7 view .LVU123
	vldr.32	s14, [r3]
.LVL35:
.LBB295:
.LBI295:
	.loc 6 180 1 is_stmt 1 view .LVU124
.LBB296:
	.loc 6 182 5 view .LVU125
	.loc 6 183 5 view .LVU126
	.syntax unified
@ 183 "/home/librgod/zephyr-sdk-0.17.0/arm-zephyr-eabi/picolibc/include/machine/math.h" 1
	vabs.f32	s13, s14
@ 0 "" 2
.LVL36:
	.loc 6 184 5 view .LVU127
	.loc 6 184 5 is_stmt 0 view .LVU128
	.thumb
	.syntax unified
.LBE296:
.LBE295:
	.loc 5 149 35 view .LVU129
	vcmpe.f32	s15, s13
	vmrs	APSR_nzcv, FPSCR
	bmi	.L68
.LVL37:
.L12:
	.loc 5 149 35 view .LVU130
.LBE299:
.LBE301:
	.loc 1 71 2 is_stmt 1 view .LVU131
	.loc 1 71 33 is_stmt 0 view .LVU132
	ldr	r3, .L69+28
	vldr.32	s16, [r3]
.LVL38:
.LBB302:
.LBI302:
	.file 7 "/home/librgod/zephyr_workspace/zephyr/include/zephyr/drivers/pwm.h"
	.loc 7 604 19 is_stmt 1 view .LVU133
	.loc 7 607 2 view .LVU134
.LBB303:
.LBI303:
	.loc 7 537 19 view .LVU135
.LBB304:
	.loc 7 540 2 view .LVU136
	.loc 7 541 2 view .LVU137
	.loc 7 542 2 view .LVU138
	.loc 7 543 2 view .LVU139
	.loc 7 545 2 view .LVU140
.LBB305:
.LBI305:
	.file 8 "/home/librgod/zephyr_workspace/motor/app/build/zephyr/include/generated/zephyr/syscalls/pwm.h"
	.loc 8 53 19 view .LVU141
.LBB306:
	.loc 8 63 2 view .LVU142
	.loc 8 63 7 view .LVU143
	.loc 8 63 5 view .LVU144
	.loc 8 64 2 view .LVU145
.LVL39:
.LBB307:
.LBI307:
	.loc 7 511 19 view .LVU146
.LBB308:
	.loc 7 515 2 view .LVU147
	.loc 7 518 2 view .LVU148
	.loc 7 518 9 is_stmt 0 view .LVU149
	ldr	r7, .L69+32
	.loc 7 518 12 view .LVU150
	ldr	r3, [r7, #8]
	.loc 7 518 9 view .LVU151
	str	r3, [sp, #12]
	add	r2, sp, #16
.LVL40:
	.loc 7 518 9 view .LVU152
	ldr	r3, [r3, #4]
	movs	r1, #1
	mov	r0, r7
	blx	r3
.LVL41:
	.loc 7 518 9 view .LVU153
.LBE308:
.LBE307:
.LBE306:
.LBE305:
	.loc 7 546 2 is_stmt 1 view .LVU154
	.loc 7 546 5 is_stmt 0 view .LVU155
	cmp	r0, #0
	.loc 7 546 5 view .LVU156
	blt	.L10
	.loc 7 550 2 is_stmt 1 view .LVU157
	.loc 7 550 26 is_stmt 0 view .LVU158
	ldrd	r5, r4, [sp, #16]
	ldr	r3, .L69+36
	.loc 7 551 5 view .LVU159
	ldr	r10, .L69+44
	.loc 7 550 26 view .LVU160
	umull	r9, r6, r5, r3
	mla	r6, r3, r4, r6
	.loc 7 550 16 view .LVU161
	mov	r1, r6
	adr	r3, .L69
	ldrd	r2, [r3]
	mov	r0, r9
.LVL42:
	.loc 7 550 16 view .LVU162
	bl	__aeabi_uldivmod
.LVL43:
	.loc 7 551 5 view .LVU163
	mov	fp, #-1
	cmp	fp, r9
	sbcs	r6, r10, r6
	.loc 7 550 16 view .LVU164
	mov	r8, r0
.LVL44:
	.loc 7 551 2 is_stmt 1 view .LVU165
	.loc 7 551 5 is_stmt 0 view .LVU166
	bcc	.L37
	.loc 7 555 2 is_stmt 1 view .LVU167
.LBE304:
.LBE303:
.LBE302:
	.loc 1 71 33 is_stmt 0 view .LVU168
	vcvt.s32.f32	s15, s16
	vmov	r0, s15	@ int
.LVL45:
	.loc 1 71 63 view .LVU169
	bic	r0, r0, r0, asr #31
.LBB321:
.LBB319:
.LBB317:
	.loc 7 555 24 view .LVU170
	asrs	r3, r0, #31
	mul	r4, r0, r4
	mla	r4, r5, r3, r4
	umull	r5, r0, r0, r5
	add	r4, r4, r0
	.loc 7 555 15 view .LVU171
	adr	r3, .L69
	ldrd	r2, [r3]
	mov	r1, r4
.LVL46:
	.loc 7 555 15 view .LVU172
	mov	r0, r5
	bl	__aeabi_uldivmod
.LVL47:
	.loc 7 556 5 view .LVU173
	cmp	fp, r5
	sbcs	r4, r10, r4
	.loc 7 555 15 view .LVU174
	mov	r3, r0
.LVL48:
	.loc 7 556 2 is_stmt 1 view .LVU175
	.loc 7 556 5 is_stmt 0 view .LVU176
	bcc	.L37
	.loc 7 560 2 is_stmt 1 view .LVU177
.LVL49:
.LBB309:
.LBI309:
	.loc 8 26 19 view .LVU178
.LBB310:
	.loc 8 38 2 view .LVU179
	.loc 8 38 7 view .LVU180
	.loc 8 38 5 view .LVU181
	.loc 8 39 2 view .LVU182
.LVL50:
.LBB311:
.LBI311:
	.loc 7 483 19 view .LVU183
.LBB312:
	.loc 7 487 2 view .LVU184
	.loc 7 490 2 view .LVU185
	.loc 7 490 5 is_stmt 0 view .LVU186
	cmp	r8, r0
	bcc	.L38
	.loc 7 494 2 is_stmt 1 view .LVU187
	.loc 7 494 9 is_stmt 0 view .LVU188
	ldr	r2, [sp, #12]
	movs	r1, #0
.LVL51:
	.loc 7 494 9 view .LVU189
	str	r1, [sp]
	ldr	r4, [r2]
	movs	r1, #1
	mov	r2, r8
	mov	r0, r7
.LVL52:
	.loc 7 494 9 view .LVU190
	blx	r4
.LVL53:
.L10:
	.loc 7 494 9 view .LVU191
.LBE312:
.LBE311:
.LBE310:
.LBE309:
.LBE317:
.LBE319:
.LBE321:
	.loc 1 75 1 view .LVU192
	add	sp, sp, #28
	.cfi_remember_state
	.cfi_def_cfa_offset 44
	@ sp needed
	vldm	sp!, {d8}
	.cfi_restore 80
	.cfi_restore 81
	.cfi_def_cfa_offset 36
	pop	{r4, r5, r6, r7, r8, r9, r10, fp, pc}
.LVL54:
.L66:
	.cfi_restore_state
.LBB322:
.LBB300:
	.loc 5 86 66 view .LVU193
	ldr	r1, .L69+40
	.loc 5 86 122 view .LVU194
	adds	r3, r3, #84
	.loc 5 86 66 view .LVU195
	lsrs	r3, r3, #3
	umull	r1, r3, r1, r3
	lsrs	r3, r3, #1
	.loc 5 86 8 view .LVU196
	vmov	s15, r3	@ int
	vcvt.f32.s32	s15, s15
	b	.L15
.LVL55:
.L30:
	.loc 5 135 4 is_stmt 1 view .LVU197
	.loc 5 137 33 is_stmt 0 view .LVU198
	ldrd	r1, r3, [r2, #8]
	.loc 5 137 31 view .LVU199
	vldr.32	s13, [r1]
	vldr.32	s8, [r3]
	.loc 5 135 17 view .LVU200
	vldr.32	s9, [r0, #24]
	.loc 5 137 31 view .LVU201
	vsub.f32	s13, s13, s8
	.loc 5 135 7 view .LVU202
	vcmp.f32	s9, s9
	.loc 5 137 9 view .LVU203
	vmul.f32	s12, s13, s12
.LVL56:
	.loc 5 135 7 view .LVU204
	vmrs	APSR_nzcv, FPSCR
	.loc 5 137 54 view .LVU205
	vdiv.f32	s13, s12, s15
	.loc 5 135 7 view .LVU206
	beq	.L32
	.loc 5 139 24 view .LVU207
	vstr.32	s13, [r2, #20]
	b	.L31
.L32:
	.loc 5 139 5 is_stmt 1 view .LVU208
	.loc 5 141 9 is_stmt 0 view .LVU209
	vmov.f32	s15, #1.0e+0
.LVL57:
	.loc 5 140 26 view .LVU210
	vldr.32	s12, [r2, #20]
	.loc 5 141 9 view .LVU211
	vsub.f32	s15, s15, s9
	.loc 5 140 26 view .LVU212
	vmul.f32	s9, s9, s12
	.loc 5 141 32 view .LVU213
	vmul.f32	s13, s15, s13
	.loc 5 140 47 view .LVU214
	vadd.f32	s13, s9, s13
	.loc 5 139 24 view .LVU215
	vstr.32	s13, [r2, #20]
	b	.L31
.LVL58:
.L68:
	.loc 5 151 4 is_stmt 1 view .LVU216
	.loc 5 152 14 is_stmt 0 view .LVU217
	vcmpe.f32	s14, #0
	vmrs	APSR_nzcv, FPSCR
	it	le
	vnegle.f32	s15, s15
	.loc 5 151 20 view .LVU218
	vstr.32	s15, [r3]
	b	.L12
.LVL59:
.L67:
	.loc 5 125 4 is_stmt 1 view .LVU219
	.loc 5 125 31 is_stmt 0 view .LVU220
	vmul.f32	s8, s11, s15
	.loc 5 125 41 view .LVU221
	vdiv.f32	s9, s8, s13
	.loc 5 125 23 view .LVU222
	vadd.f32	s14, s14, s9
	vstr.32	s14, [r2, #16]
.LVL60:
	.loc 5 126 4 is_stmt 1 view .LVU223
	.loc 5 126 16 is_stmt 0 view .LVU224
	vldr.32	s13, [r0, #12]
.LVL61:
	.loc 5 126 7 view .LVU225
	vcmp.f32	s13, #0
	vmrs	APSR_nzcv, FPSCR
	beq	.L27
	.loc 5 127 5 is_stmt 1 view .LVU226
.LVL62:
.LBB297:
.LBI297:
	.loc 6 180 1 view .LVU227
.LBB298:
	.loc 6 182 5 view .LVU228
	.loc 6 183 5 view .LVU229
	.syntax unified
@ 183 "/home/librgod/zephyr-sdk-0.17.0/arm-zephyr-eabi/picolibc/include/machine/math.h" 1
	vabs.f32	s9, s14
@ 0 "" 2
.LVL63:
	.loc 6 184 5 view .LVU230
	.loc 6 184 5 is_stmt 0 view .LVU231
	.thumb
	.syntax unified
.LBE298:
.LBE297:
	.loc 5 127 8 view .LVU232
	vcmpe.f32	s13, s9
	vmrs	APSR_nzcv, FPSCR
	bpl	.L27
	.loc 5 128 6 is_stmt 1 view .LVU233
	.loc 5 130 14 is_stmt 0 view .LVU234
	vcmpe.f32	s14, #0
	vmrs	APSR_nzcv, FPSCR
	it	le
	vnegle.f32	s13, s13
	.loc 5 128 25 view .LVU235
	vmov.f32	s14, s13
	vstr.32	s13, [r2, #16]
	b	.L27
.LVL64:
.L37:
	.loc 5 128 25 view .LVU236
.LBE300:
.LBE322:
.LBB323:
.LBB320:
.LBB318:
	.loc 7 552 10 view .LVU237
	mvn	r0, #133
	b	.L10
.LVL65:
.L38:
.LBB316:
.LBB315:
.LBB314:
.LBB313:
	.loc 7 491 10 view .LVU238
	mvn	r0, #21
.LVL66:
	.loc 7 491 10 view .LVU239
.LBE313:
.LBE314:
.LBE315:
.LBE316:
.LBE318:
.LBE320:
.LBE323:
	.loc 1 71 9 view .LVU240
	b	.L10
.L70:
	.align	3
.L69:
	.word	1000000000
	.word	0
	.word	temp_pwm_pid
	.word	-2045222521
	.word	-818089009
	.word	1022611261
	.word	953267991
	.word	temp_pwm_output
	.word	__device_dts_ord_60
	.word	20000000
	.word	409044505
	.word	999999999
	.cfi_endproc
.LFE782:
	.size	IMU_temp_pwm_set, .-IMU_temp_pwm_set
	.global	__aeabi_f2d
	.section	.rodata.IMU_Sensor_trig_handler.str1.4,"aMS",%progbits,1
	.align	2
.LC0:
	.ascii	"Current Temp: %.2f, PWM: %d\000"
	.section	.text.IMU_Sensor_trig_handler,"ax",%progbits
	.align	1
	.p2align 2,,3
	.syntax unified
	.thumb
	.thumb_func
	.type	IMU_Sensor_trig_handler, %function
IMU_Sensor_trig_handler:
.LVL67:
.LFB789:
	.loc 1 256 1 is_stmt 1 view -0
	.cfi_startproc
	@ args = 0, pretend = 0, frame = 24
	@ frame_needed = 0, uses_anonymous_args = 0
	.loc 1 257 2 view .LVU242
	.loc 1 257 5 is_stmt 0 view .LVU243
	ldrh	r3, [r1]
	cmp	r3, #1
	bne	.L98
	.loc 1 256 1 view .LVU244
	push	{r4, r5, r6, r7, r8, lr}
	.cfi_def_cfa_offset 24
	.cfi_offset 4, -24
	.cfi_offset 5, -20
	.cfi_offset 6, -16
	.cfi_offset 7, -12
	.cfi_offset 8, -8
	.cfi_offset 14, -4
	vpush.64	{d8}
	.cfi_def_cfa_offset 32
	.cfi_offset 80, -32
	.cfi_offset 81, -28
	ldrh	r6, [r1, #2]
.LVL68:
.LBB428:
.LBI428:
	.loc 1 255 13 is_stmt 1 view .LVU245
.LBB429:
	.loc 1 261 2 view .LVU246
	.loc 1 261 5 is_stmt 0 view .LVU247
	cmp	r6, #3
.LBE429:
.LBE428:
	.loc 1 256 1 view .LVU248
	sub	sp, sp, #56
	.cfi_def_cfa_offset 88
	mov	r5, r0
.LBB580:
.LBB578:
	.loc 1 261 5 view .LVU249
	beq	.L101
	.loc 1 275 9 is_stmt 1 view .LVU250
	.loc 1 275 12 is_stmt 0 view .LVU251
	cmp	r6, #7
	beq	.L96
	ldr	r4, .L103+8
	ldr	r5, .L103+12
.LVL69:
.L83:
	.loc 1 289 2 is_stmt 1 view .LVU252
	.loc 1 289 9 is_stmt 0 view .LVU253
	ldr	r3, [r5, #56]
	.loc 1 289 5 view .LVU254
	cbz	r3, .L88
	.loc 1 290 3 is_stmt 1 view .LVU255
	ldr	r0, .L103+16
	blx	r3
.LVL70:
.L88:
	.loc 1 293 2 view .LVU256
	.loc 1 293 18 is_stmt 0 view .LVU257
	ldr	r2, [r4]
	.loc 1 294 3 is_stmt 1 view .LVU258
.LBB430:
.LBI430:
	.loc 1 101 13 view .LVU259
.LVL71:
.LBB431:
	.loc 1 104 2 view .LVU260
.LBE431:
.LBE430:
	.loc 1 293 18 is_stmt 0 view .LVU261
	ldr	r3, .L103+20
.LBB452:
.LBB447:
	.loc 1 104 18 view .LVU262
	ldr	r0, .L103+24
.LBE447:
.LBE452:
	.loc 1 293 18 view .LVU263
	asrs	r1, r2, #31
	smull	r4, r3, r3, r2
.LBB453:
.LBB448:
	.loc 1 104 18 view .LVU264
	smull	r4, r0, r0, r2
.LBE448:
.LBE453:
	.loc 1 293 18 view .LVU265
	rsb	r3, r1, r3, asr #5
	add	r3, r3, r3, lsl #2
.LBB454:
.LBB449:
	.loc 1 104 18 view .LVU266
	rsb	r1, r1, r0, asr #4
	movs	r0, #50
.LBE449:
.LBE454:
	.loc 1 293 18 view .LVU267
	sub	r3, r2, r3, lsl #4
.LBB455:
.LBB450:
	.loc 1 104 18 view .LVU268
	mls	r2, r0, r1, r2
	.loc 1 104 5 view .LVU269
	orrs	r4, r3, r2
	bne	.L71
	.loc 1 105 3 is_stmt 1 view .LVU270
	ldr	r0, [r5, #60]
.LVL72:
.LBB432:
.LBI432:
	.loc 1 59 7 view .LVU271
.LBB433:
	.loc 1 61 2 view .LVU272
	.loc 1 62 2 view .LVU273
.LBB434:
.LBI434:
	.loc 3 125 19 view .LVU274
.LBB435:
	.loc 3 135 2 view .LVU275
	.loc 3 135 7 view .LVU276
	.loc 3 135 5 view .LVU277
	.loc 3 136 2 view .LVU278
.LVL73:
.LBB436:
.LBI436:
	.loc 4 906 19 view .LVU279
.LBB437:
	.loc 4 910 2 view .LVU280
	.loc 4 913 2 view .LVU281
	.loc 4 913 12 is_stmt 0 view .LVU282
	ldr	r3, [r0, #8]
.LBE437:
.LBE436:
.LBE435:
.LBE434:
	.loc 1 63 15 view .LVU283
	ldr	r8, .L103+60
.LBB441:
.LBB440:
.LBB439:
.LBB438:
	.loc 4 913 9 view .LVU284
	ldr	r3, [r3, #16]
	add	r2, sp, #32
.LVL74:
	.loc 4 913 9 view .LVU285
	movs	r1, #12
	blx	r3
.LVL75:
	.loc 4 913 9 view .LVU286
.LBE438:
.LBE439:
.LBE440:
.LBE441:
	.loc 1 63 2 is_stmt 1 view .LVU287
.LBB442:
.LBI442:
	.loc 4 1323 22 view .LVU288
.LBB443:
	.loc 4 1325 2 view .LVU289
	.loc 4 1325 29 is_stmt 0 view .LVU290
	ldr	r0, [sp, #36]
	bl	__aeabi_i2d
.LVL76:
	.loc 4 1325 47 view .LVU291
	adr	r3, .L103
	ldrd	r2, [r3]
	bl	__aeabi_ddiv
.LVL77:
	mov	r6, r0
	.loc 4 1325 9 view .LVU292
	ldr	r0, [sp, #32]
	.loc 4 1325 47 view .LVU293
	mov	r7, r1
	.loc 4 1325 9 view .LVU294
	bl	__aeabi_i2d
.LVL78:
	mov	r2, r0
	mov	r3, r1
	.loc 4 1325 27 view .LVU295
	mov	r0, r6
	mov	r1, r7
	bl	__aeabi_dadd
.LVL79:
.LBE443:
.LBE442:
	.loc 1 63 17 view .LVU296
	bl	__aeabi_d2f
.LVL80:
	mov	r3, r0	@ float
.LBE433:
.LBE432:
	.loc 1 107 3 view .LVU297
	ldr	r0, [r5, #60]
.LBB445:
.LBB444:
	.loc 1 63 17 view .LVU298
	str	r3, [r8]	@ float
	.loc 1 64 2 is_stmt 1 view .LVU299
.LVL81:
	.loc 1 64 2 is_stmt 0 view .LVU300
.LBE444:
.LBE445:
	.loc 1 107 3 is_stmt 1 view .LVU301
	bl	IMU_temp_pwm_set
.LVL82:
	.loc 1 109 3 view .LVU302
	.loc 1 109 20 is_stmt 0 view .LVU303
	vldr.32	s15, [r8]
	.loc 1 109 6 view .LVU304
	vldr.32	s14, .L103+28
	vcmpe.f32	s15, s14
	vmrs	APSR_nzcv, FPSCR
	bge	.L102
.LVL83:
.L71:
	.loc 1 109 6 view .LVU305
.LBE450:
.LBE455:
.LBE578:
.LBE580:
	.loc 1 296 1 view .LVU306
	add	sp, sp, #56
	.cfi_def_cfa_offset 32
	@ sp needed
	vldm	sp!, {d8}
	.cfi_restore 80
	.cfi_restore 81
	.cfi_def_cfa_offset 24
	pop	{r4, r5, r6, r7, r8, pc}
.LVL84:
.L98:
	.cfi_def_cfa_offset 0
	.cfi_restore 4
	.cfi_restore 5
	.cfi_restore 6
	.cfi_restore 7
	.cfi_restore 8
	.cfi_restore 14
	.loc 1 296 1 view .LVU307
	bx	lr
.LVL85:
.L101:
	.cfi_def_cfa_offset 88
	.cfi_offset 4, -24
	.cfi_offset 5, -20
	.cfi_offset 6, -16
	.cfi_offset 7, -12
	.cfi_offset 8, -8
	.cfi_offset 14, -4
	.cfi_offset 80, -32
	.cfi_offset 81, -28
.LBB581:
.LBB579:
	.loc 1 261 59 view .LVU308
	ldr	r4, .L103+8
	ldr	r3, [r4]
	adds	r3, r3, #1
	str	r3, [r4]
.LBB456:
	.loc 1 262 3 is_stmt 1 view .LVU309
.LVL86:
.LBB457:
.LBI457:
	.loc 3 78 19 view .LVU310
.LBB458:
	.loc 3 86 2 view .LVU311
	.loc 3 86 7 view .LVU312
	.loc 3 86 5 view .LVU313
	.loc 3 87 2 view .LVU314
.LVL87:
.LBB459:
.LBI459:
	.loc 4 840 19 view .LVU315
.LBB460:
	.loc 4 842 2 view .LVU316
	.loc 4 845 2 view .LVU317
	.loc 4 845 12 is_stmt 0 view .LVU318
	ldr	r3, [r0, #8]
	.loc 4 845 9 view .LVU319
	movs	r1, #64
.LVL88:
	.loc 4 845 9 view .LVU320
	ldr	r3, [r3, #12]
	blx	r3
.LVL89:
	.loc 4 845 9 view .LVU321
.LBE460:
.LBE459:
.LBE458:
.LBE457:
	.loc 1 264 3 is_stmt 1 view .LVU322
	.loc 1 265 3 view .LVU323
.LBB461:
.LBI461:
	.loc 3 125 19 view .LVU324
.LBB462:
	.loc 3 135 2 view .LVU325
	.loc 3 135 7 view .LVU326
	.loc 3 135 5 view .LVU327
	.loc 3 136 2 view .LVU328
.LVL90:
.LBB463:
.LBI463:
	.loc 4 906 19 view .LVU329
.LBB464:
	.loc 4 910 2 view .LVU330
	.loc 4 913 2 view .LVU331
	.loc 4 913 12 is_stmt 0 view .LVU332
	ldr	r3, [r5, #8]
	.loc 4 913 9 view .LVU333
	mov	r1, r6
	ldr	r3, [r3, #16]
	mov	r0, r5
	add	r2, sp, #32
.LVL91:
	.loc 4 913 9 view .LVU334
	blx	r3
.LVL92:
	.loc 4 913 9 view .LVU335
.LBE464:
.LBE463:
.LBE462:
.LBE461:
	.loc 1 267 3 is_stmt 1 view .LVU336
.LBB465:
.LBI465:
	.loc 4 1334 21 view .LVU337
.LBB466:
	.loc 4 1336 2 view .LVU338
	.loc 4 1336 28 is_stmt 0 view .LVU339
	vldr.32	s15, [sp, #36]	@ int
.LBE466:
.LBE465:
.LBB472:
.LBB473:
	vldr.32	s13, [sp, #52]	@ int
.LBE473:
.LBE472:
.LBB479:
.LBB467:
	.loc 4 1336 45 view .LVU340
	vldr.32	s12, .L103+32
.LBE467:
.LBE479:
	.loc 1 267 77 view .LVU341
	ldr	r3, .L103+16
	.loc 1 267 16 view .LVU342
	ldr	r5, .L103+12
.LVL93:
	.loc 1 267 57 view .LVU343
	vldr.32	s5, [r3, #364]
	.loc 1 269 57 view .LVU344
	vldr.32	s6, [r3, #368]
	.loc 1 271 57 view .LVU345
	vldr.32	s7, [r3, #372]
	.loc 1 267 82 view .LVU346
	vldr.32	s8, [r3, #376]
	.loc 1 269 82 view .LVU347
	vldr.32	s9, [r3, #380]
.LBB480:
.LBB481:
	.loc 1 88 224 view .LVU348
	ldr	r1, [r5, #48]
.LBE481:
.LBE480:
.LBB492:
.LBB468:
	.loc 4 1336 28 view .LVU349
	vcvt.f32.s32	s14, s15
.LBE468:
.LBE492:
.LBB493:
.LBB494:
	vldr.32	s15, [sp, #44]	@ int
.LBE494:
.LBE493:
.LBB500:
.LBB474:
	vcvt.f32.s32	s11, s13
.LBE474:
.LBE500:
.LBB501:
.LBB495:
	vcvt.f32.s32	s15, s15
.LBE495:
.LBE501:
.LBB502:
.LBB469:
	.loc 4 1336 45 view .LVU350
	vdiv.f32	s13, s14, s12
.LBE469:
.LBE502:
.LBB503:
.LBB496:
	vdiv.f32	s14, s15, s12
.LBE496:
.LBE503:
.LBB504:
.LBB475:
	vdiv.f32	s15, s11, s12
.LBE475:
.LBE504:
.LBB505:
.LBB497:
	.loc 4 1336 9 view .LVU351
	vldr.32	s12, [sp, #40]	@ int
	vcvt.f32.s32	s11, s12
.LBE497:
.LBE505:
.LBB506:
.LBB470:
	vldr.32	s12, [sp, #32]	@ int
	vcvt.f32.s32	s10, s12
.LBE470:
.LBE506:
.LBB507:
.LBB476:
	vldr.32	s12, [sp, #48]	@ int
	vcvt.f32.s32	s12, s12
.LBE476:
.LBE507:
.LBB508:
.LBB498:
	.loc 4 1336 26 view .LVU352
	vadd.f32	s14, s14, s11
.LBE498:
.LBE508:
.LBB509:
.LBB477:
	vadd.f32	s15, s15, s12
.LBE477:
.LBE509:
.LBB510:
.LBB471:
	vadd.f32	s13, s13, s10
.LBE471:
.LBE510:
	.loc 1 269 57 view .LVU353
	vsub.f32	s14, s14, s6
	.loc 1 267 57 view .LVU354
	vsub.f32	s13, s13, s5
	.loc 1 271 82 view .LVU355
	vldr.32	s11, [r3, #384]
.LBB511:
.LBB488:
	.loc 1 88 240 view .LVU356
	ldr	r3, [r5, #36]
.LBE488:
.LBE511:
	.loc 1 271 57 view .LVU357
	vsub.f32	s15, s15, s7
	.loc 1 267 82 view .LVU358
	vdiv.f32	s12, s13, s8
.LBB512:
.LBB489:
	.loc 1 88 240 view .LVU359
	subs	r3, r1, r3
	.loc 1 88 81 view .LVU360
	cmn	r3, #85
.LBE489:
.LBE512:
	.loc 1 269 82 view .LVU361
	vdiv.f32	s13, s14, s9
	.loc 1 271 82 view .LVU362
	vdiv.f32	s14, s15, s11
	.loc 1 267 16 view .LVU363
	vstr.32	s12, [r5, #12]
	.loc 1 269 3 is_stmt 1 view .LVU364
.LVL94:
.LBB513:
.LBI493:
	.loc 4 1334 21 view .LVU365
.LBB499:
	.loc 4 1336 2 view .LVU366
	.loc 4 1336 2 is_stmt 0 view .LVU367
.LBE499:
.LBE513:
	.loc 1 269 16 view .LVU368
	vstr.32	s13, [r5, #16]
	.loc 1 271 3 is_stmt 1 view .LVU369
.LVL95:
.LBB514:
.LBI472:
	.loc 4 1334 21 view .LVU370
.LBB478:
	.loc 4 1336 2 view .LVU371
	.loc 4 1336 2 is_stmt 0 view .LVU372
.LBE478:
.LBE514:
	.loc 1 271 16 view .LVU373
	vstr.32	s14, [r5, #20]
	.loc 1 274 3 is_stmt 1 view .LVU374
.LBB515:
.LBI480:
	.loc 1 86 13 view .LVU375
.LVL96:
.LBB490:
	.loc 1 88 2 view .LVU376
	.loc 1 88 81 is_stmt 0 view .LVU377
	bhi	.L75
	.loc 1 88 67 view .LVU378
	ldr	r2, .L103+36
	.loc 1 88 125 view .LVU379
	adds	r3, r3, #84
	.loc 1 88 67 view .LVU380
	lsrs	r3, r3, #3
	umull	r2, r3, r2, r3
	lsrs	r3, r3, #1
	vmov	s16, r3	@ int
	.loc 1 88 81 view .LVU381
	vcvt.f32.s32	s16, s16
.L76:
	.loc 1 88 8 view .LVU382
	vldr.32	s15, .L103+40
	.loc 1 89 22 view .LVU383
	str	r1, [r5, #36]
	.loc 1 88 8 view .LVU384
	vmul.f32	s16, s16, s15
.LVL97:
	.loc 1 89 2 is_stmt 1 view .LVU385
	.loc 1 90 2 view .LVU386
.LBB482:
.LBI482:
	.file 9 "/home/librgod/zephyr_workspace/zephyr/include/zephyr/kernel.h"
	.loc 9 1955 24 view .LVU387
	.loc 9 1957 2 view .LVU388
.LBB483:
.LBI483:
	.file 10 "/home/librgod/zephyr_workspace/zephyr/include/zephyr/arch/arm/misc.h"
	.loc 10 24 24 view .LVU389
.LBB484:
	.loc 10 26 2 view .LVU390
	.loc 10 26 9 is_stmt 0 view .LVU391
	bl	sys_clock_cycle_get_32
.LVL98:
.LBE484:
.LBE483:
.LBE482:
	.loc 1 93 211 view .LVU392
	ldr	r1, [r5, #52]
	.loc 1 93 228 view .LVU393
	ldr	r3, [r5, #40]
	.loc 1 90 22 view .LVU394
	str	r0, [r5, #48]
	.loc 1 92 2 is_stmt 1 view .LVU395
	.loc 1 93 228 is_stmt 0 view .LVU396
	subs	r3, r1, r3
	.loc 1 93 66 view .LVU397
	cmn	r3, #85
	bhi	.L79
	.loc 1 93 52 view .LVU398
	ldr	r2, .L103+36
	.loc 1 93 112 view .LVU399
	adds	r3, r3, #84
	.loc 1 93 52 view .LVU400
	lsrs	r3, r3, #3
	umull	r2, r3, r2, r3
	lsrs	r3, r3, #1
	vmov	s17, r3	@ int
	.loc 1 93 66 view .LVU401
	vcvt.f32.s32	s17, s17
.L80:
	.loc 1 92 8 view .LVU402
	vldr.32	s15, .L103+40
	.loc 1 94 23 view .LVU403
	str	r1, [r5, #40]
	.loc 1 92 8 view .LVU404
	vmul.f32	s17, s17, s15
.LVL99:
	.loc 1 94 2 is_stmt 1 view .LVU405
	.loc 1 95 2 view .LVU406
.LBB485:
.LBI485:
	.loc 9 1955 24 view .LVU407
	.loc 9 1957 2 view .LVU408
.LBB486:
.LBI486:
	.loc 10 24 24 view .LVU409
.LBB487:
	.loc 10 26 2 view .LVU410
	.loc 10 26 9 is_stmt 0 view .LVU411
	bl	sys_clock_cycle_get_32
.LVL100:
.LBE487:
.LBE486:
.LBE485:
	.loc 1 97 2 view .LVU412
	vldr.32	s6, [r5, #20]
	vldr.32	s5, [r5, #16]
	vldr.32	s4, [r5, #12]
	vldr.32	s2, [r5, #8]
	vldr.32	s1, [r5, #4]
	vldr.32	s0, [r5]
	.loc 1 95 23 view .LVU413
	str	r0, [r5, #52]
	.loc 1 97 2 is_stmt 1 view .LVU414
	vmov.f32	s7, s17
	vmov.f32	s3, s16
	bl	IMU_QuaternionEKF_Measurement_Update
.LVL101:
	.loc 1 97 2 is_stmt 0 view .LVU415
.LBE490:
.LBE515:
.LBE456:
	.loc 1 261 72 view .LVU416
	b	.L83
.LVL102:
.L96:
	.loc 1 276 16 view .LVU417
	ldr	r2, .L103+44
	ldr	r3, [r2]
	adds	r3, r3, #1
	str	r3, [r2]
.LBB517:
	.loc 1 277 3 is_stmt 1 view .LVU418
.LVL103:
.LBB518:
.LBI518:
	.loc 3 78 19 view .LVU419
.LBB519:
	.loc 3 86 2 view .LVU420
	.loc 3 86 7 view .LVU421
	.loc 3 86 5 view .LVU422
	.loc 3 87 2 view .LVU423
.LVL104:
.LBB520:
.LBI520:
	.loc 4 840 19 view .LVU424
.LBB521:
	.loc 4 842 2 view .LVU425
	.loc 4 845 2 view .LVU426
	.loc 4 845 12 is_stmt 0 view .LVU427
	ldr	r3, [r0, #8]
	.loc 4 845 9 view .LVU428
	movs	r1, #64
.LVL105:
	.loc 4 845 9 view .LVU429
	ldr	r3, [r3, #12]
	blx	r3
.LVL106:
	.loc 4 845 9 view .LVU430
.LBE521:
.LBE520:
.LBE519:
.LBE518:
	.loc 1 279 3 is_stmt 1 view .LVU431
	.loc 1 280 3 view .LVU432
.LBB522:
.LBI522:
	.loc 3 125 19 view .LVU433
.LBB523:
	.loc 3 135 2 view .LVU434
	.loc 3 135 7 view .LVU435
	.loc 3 135 5 view .LVU436
	.loc 3 136 2 view .LVU437
.LVL107:
.LBB524:
.LBI524:
	.loc 4 906 19 view .LVU438
.LBB525:
	.loc 4 910 2 view .LVU439
	.loc 4 913 2 view .LVU440
	.loc 4 913 12 is_stmt 0 view .LVU441
	ldr	r3, [r5, #8]
	.loc 4 913 9 view .LVU442
	mov	r1, r6
	ldr	r3, [r3, #16]
	mov	r0, r5
	add	r2, sp, #32
.LVL108:
	.loc 4 913 9 view .LVU443
	blx	r3
.LVL109:
	.loc 4 913 9 view .LVU444
.LBE525:
.LBE524:
.LBE523:
.LBE522:
	.loc 1 282 3 is_stmt 1 view .LVU445
.LBB526:
.LBI526:
	.loc 4 1334 21 view .LVU446
.LBB527:
	.loc 4 1336 2 view .LVU447
	.loc 4 1336 28 is_stmt 0 view .LVU448
	vldr.32	s15, [sp, #36]	@ int
.LBE527:
.LBE526:
.LBB533:
.LBB534:
	vldr.32	s13, [sp, #52]	@ int
.LBE534:
.LBE533:
.LBB540:
.LBB528:
	.loc 4 1336 45 view .LVU449
	vldr.32	s12, .L103+32
.LBE528:
.LBE540:
	.loc 1 282 15 view .LVU450
	ldr	r5, .L103+12
.LVL110:
	.loc 1 282 73 view .LVU451
	ldr	r3, .L103+16
.LBB541:
.LBB542:
	.loc 1 79 224 view .LVU452
	ldr	r1, [r5, #48]
.LBE542:
.LBE541:
	.loc 1 282 54 view .LVU453
	vldr.32	s7, [r3, #352]
	.loc 1 283 54 view .LVU454
	vldr.32	s8, [r3, #356]
	.loc 1 284 54 view .LVU455
	vldr.32	s9, [r3, #360]
.LBB550:
.LBB546:
	.loc 1 79 240 view .LVU456
	ldr	r3, [r5, #36]
.LBE546:
.LBE550:
.LBB551:
.LBB529:
	.loc 4 1336 28 view .LVU457
	vcvt.f32.s32	s14, s15
.LBE529:
.LBE551:
.LBB552:
.LBB553:
	vldr.32	s15, [sp, #44]	@ int
.LBE553:
.LBE552:
.LBB559:
.LBB535:
	vcvt.f32.s32	s11, s13
.LBE535:
.LBE559:
.LBB560:
.LBB554:
	vcvt.f32.s32	s15, s15
.LBE554:
.LBE560:
.LBB561:
.LBB530:
	.loc 4 1336 45 view .LVU458
	vdiv.f32	s13, s14, s12
.LBE530:
.LBE561:
.LBB562:
.LBB547:
	.loc 1 79 240 view .LVU459
	subs	r3, r1, r3
	.loc 1 79 81 view .LVU460
	cmn	r3, #85
.LBE547:
.LBE562:
.LBB563:
.LBB555:
	.loc 4 1336 45 view .LVU461
	vdiv.f32	s14, s15, s12
.LBE555:
.LBE563:
.LBB564:
.LBB536:
	vdiv.f32	s15, s11, s12
.LBE536:
.LBE564:
.LBB565:
.LBB531:
	.loc 4 1336 9 view .LVU462
	vldr.32	s12, [sp, #32]	@ int
	vcvt.f32.s32	s10, s12
.LBE531:
.LBE565:
.LBB566:
.LBB556:
	vldr.32	s12, [sp, #40]	@ int
	vcvt.f32.s32	s11, s12
.LBE556:
.LBE566:
.LBB567:
.LBB537:
	vldr.32	s12, [sp, #48]	@ int
	vcvt.f32.s32	s12, s12
.LBE537:
.LBE567:
.LBB568:
.LBB532:
	.loc 4 1336 26 view .LVU463
	vadd.f32	s13, s13, s10
.LBE532:
.LBE568:
.LBB569:
.LBB557:
	vadd.f32	s14, s14, s11
.LBE557:
.LBE569:
.LBB570:
.LBB538:
	vadd.f32	s15, s15, s12
.LBE538:
.LBE570:
	.loc 1 282 54 view .LVU464
	vsub.f32	s13, s13, s7
	.loc 1 283 54 view .LVU465
	vsub.f32	s14, s14, s8
	.loc 1 284 54 view .LVU466
	vsub.f32	s15, s15, s9
	.loc 1 282 15 view .LVU467
	vstr.32	s13, [r5]
	.loc 1 283 3 is_stmt 1 view .LVU468
.LVL111:
.LBB571:
.LBI552:
	.loc 4 1334 21 view .LVU469
.LBB558:
	.loc 4 1336 2 view .LVU470
	.loc 4 1336 2 is_stmt 0 view .LVU471
.LBE558:
.LBE571:
	.loc 1 283 15 view .LVU472
	vstr.32	s14, [r5, #4]
	.loc 1 284 3 is_stmt 1 view .LVU473
.LVL112:
.LBB572:
.LBI533:
	.loc 4 1334 21 view .LVU474
.LBB539:
	.loc 4 1336 2 view .LVU475
	.loc 4 1336 2 is_stmt 0 view .LVU476
.LBE539:
.LBE572:
	.loc 1 284 15 view .LVU477
	vstr.32	s15, [r5, #8]
	.loc 1 286 3 is_stmt 1 view .LVU478
.LBB573:
.LBI541:
	.loc 1 77 13 view .LVU479
.LVL113:
.LBB548:
	.loc 1 79 2 view .LVU480
	.loc 1 79 81 is_stmt 0 view .LVU481
	bhi	.L84
	.loc 1 79 67 view .LVU482
	ldr	r2, .L103+36
	.loc 1 79 125 view .LVU483
	adds	r3, r3, #84
	.loc 1 79 67 view .LVU484
	lsrs	r3, r3, #3
	umull	r2, r3, r2, r3
	lsrs	r3, r3, #1
	vmov	s16, r3	@ int
	.loc 1 79 81 view .LVU485
	vcvt.f32.s32	s16, s16
.L85:
	.loc 1 79 8 view .LVU486
	vldr.32	s15, .L103+40
	.loc 1 80 22 view .LVU487
	str	r1, [r5, #36]
	.loc 1 79 8 view .LVU488
	vmul.f32	s16, s16, s15
.LVL114:
	.loc 1 80 2 is_stmt 1 view .LVU489
	.loc 1 81 2 view .LVU490
.LBB543:
.LBI543:
	.loc 9 1955 24 view .LVU491
	.loc 9 1957 2 view .LVU492
.LBB544:
.LBI544:
	.loc 10 24 24 view .LVU493
.LBB545:
	.loc 10 26 2 view .LVU494
	.loc 10 26 9 is_stmt 0 view .LVU495
	bl	sys_clock_cycle_get_32
.LVL115:
.LBE545:
.LBE544:
.LBE543:
	.loc 1 83 2 view .LVU496
	vldr.32	s2, [r5, #8]
	vldr.32	s1, [r5, #4]
	vldr.32	s0, [r5]
	.loc 1 81 22 view .LVU497
	str	r0, [r5, #48]
	.loc 1 83 2 is_stmt 1 view .LVU498
	vmov.f32	s3, s16
	bl	IMU_QuaternionEKF_Predict_Update
.LVL116:
	.loc 1 83 2 is_stmt 0 view .LVU499
	ldr	r4, .L103+8
	b	.L83
.LVL117:
.L79:
	.loc 1 83 2 view .LVU500
.LBE548:
.LBE573:
.LBE517:
.LBB575:
.LBB516:
.LBB491:
	.loc 1 93 202 view .LVU501
	adds	r3, r3, #84
	.loc 1 93 145 view .LVU502
	mov	r6, #0
	.loc 1 93 202 view .LVU503
	adc	r6, r6, #0
	.loc 1 93 52 view .LVU504
	lsr	ip, r3, #30
	orr	ip, ip, r6, lsl #2
	bic	r0, r3, #-1073741824
	ldr	r2, .L103+48
	add	r0, r0, ip
	umull	r7, r2, r2, r0
	subs	r7, r0, r2
	add	r2, r2, r7, lsr #1
	lsrs	r2, r2, #4
	add	r2, r2, r2, lsl #1
	rsb	r2, r2, r2, lsl #3
	subs	r0, r0, r2
	ldr	r2, .L103+52
	subs	r3, r3, r0
	ldr	r0, .L103+56
	mul	r2, r3, r2
	sbc	r6, r6, #0
	mla	r2, r0, r6, r2
	umull	r3, r0, r3, r0
	add	r2, r2, r0
	lsrs	r3, r3, #3
	orr	r3, r3, r2, lsl #29
	.loc 1 93 66 view .LVU505
	vmov	s15, r3	@ int
	vcvt.f32.s32	s17, s15
	b	.L80
.L104:
	.align	3
.L103:
	.word	0
	.word	1093567616
	.word	accel_count
	.word	INS
	.word	QEKF_INS
	.word	1717986919
	.word	1374389535
	.word	1115815936
	.word	1232348160
	.word	409044505
	.word	897988541
	.word	gyro_count
	.word	-2045222521
	.word	-818089009
	.word	1022611261
	.word	current_temp
.LVL118:
.L75:
	.loc 1 88 215 view .LVU506
	adds	r3, r3, #84
	.loc 1 88 160 view .LVU507
	mov	r6, #0
	.loc 1 88 215 view .LVU508
	adc	r6, r6, #0
	.loc 1 88 67 view .LVU509
	lsr	ip, r3, #30
	orr	ip, ip, r6, lsl #2
	bic	r0, r3, #-1073741824
	ldr	r2, .L105
	add	r0, r0, ip
	umull	r7, r2, r2, r0
	subs	r7, r0, r2
	add	r2, r2, r7, lsr #1
	lsrs	r2, r2, #4
	add	r2, r2, r2, lsl #1
	rsb	r2, r2, r2, lsl #3
	subs	r0, r0, r2
	ldr	r2, .L105+4
	subs	r3, r3, r0
	ldr	r0, .L105+8
	mul	r2, r3, r2
	sbc	r6, r6, #0
	mla	r2, r0, r6, r2
	umull	r3, r0, r3, r0
	add	r2, r2, r0
	lsrs	r3, r3, #3
	orr	r3, r3, r2, lsl #29
	.loc 1 88 81 view .LVU510
	vmov	s15, r3	@ int
	vcvt.f32.s32	s16, s15
	b	.L76
.LVL119:
.L84:
	.loc 1 88 81 view .LVU511
.LBE491:
.LBE516:
.LBE575:
.LBB576:
.LBB574:
.LBB549:
	.loc 1 79 215 view .LVU512
	adds	r3, r3, #84
	.loc 1 79 160 view .LVU513
	mov	r4, #0
	.loc 1 79 215 view .LVU514
	adc	r4, r4, #0
	.loc 1 79 67 view .LVU515
	lsrs	r2, r3, #30
	orr	r2, r2, r4, lsl #2
	bic	r0, r3, #-1073741824
	add	r0, r0, r2
	ldr	r2, .L105
	umull	r6, r2, r2, r0
	subs	r6, r0, r2
	add	r2, r2, r6, lsr #1
	lsrs	r2, r2, #4
	add	r2, r2, r2, lsl #1
	rsb	r2, r2, r2, lsl #3
	subs	r0, r0, r2
	ldr	r2, .L105+4
	subs	r3, r3, r0
	ldr	r0, .L105+8
	mul	r2, r3, r2
	sbc	r4, r4, #0
	mla	r2, r0, r4, r2
	umull	r3, r0, r3, r0
	add	r2, r2, r0
	lsrs	r3, r3, #3
	orr	r3, r3, r2, lsl #29
	.loc 1 79 81 view .LVU516
	vmov	s15, r3	@ int
	vcvt.f32.s32	s16, s15
	b	.L85
.LVL120:
.L102:
	.loc 1 79 81 view .LVU517
.LBE549:
.LBE574:
.LBE576:
.LBB577:
.LBB451:
	.loc 1 110 4 is_stmt 1 view .LVU518
.LBB446:
	.loc 1 110 9 view .LVU519
	.loc 1 110 316 view .LVU520
	.loc 1 110 15 view .LVU521
	.loc 1 110 3 view .LVU522
	.loc 1 110 14 view .LVU523
	.loc 1 110 5 view .LVU524
	.loc 1 110 34 view .LVU525
	.loc 1 110 39 view .LVU526
	ldr	r3, .L105+12
	vmov	r0, s15
	vldr.32	s15, [r3]
	vcvt.s32.f32	s15, s15
	vstr.32	s15, [sp, #24]	@ int
	bl	__aeabi_f2d
.LVL121:
	ldr	r3, .L105+16
	str	r4, [sp]
	strd	r0, [sp, #16]
	strd	r4, r3, [sp, #4]
	ldr	r1, .L105+20
	mov	r3, r4
	movs	r2, #2
	mov	r0, r4
	bl	z_log_msg_runtime_create.constprop.1
.LVL122:
	.loc 1 110 166 view .LVU527
	.loc 1 110 37 view .LVU528
	.loc 1 110 6 view .LVU529
	.loc 1 110 19 view .LVU530
	.loc 1 110 19 is_stmt 0 view .LVU531
	b	.L71
.L106:
	.align	2
.L105:
	.word	-2045222521
	.word	-818089009
	.word	1022611261
	.word	temp_pwm_output
	.word	.LC0
	.word	log_const_imu_task
.LBE446:
.LBE451:
.LBE577:
.LBE579:
.LBE581:
	.cfi_endproc
.LFE789:
	.size	IMU_Sensor_trig_handler, .-IMU_Sensor_trig_handler
	.section	.text.IMU_Sensor_set_update_cb,"ax",%progbits
	.align	1
	.p2align 2,,3
	.global	IMU_Sensor_set_update_cb
	.syntax unified
	.thumb
	.thumb_func
	.type	IMU_Sensor_set_update_cb, %function
IMU_Sensor_set_update_cb:
.LVL123:
.LFB786:
	.loc 1 118 1 is_stmt 1 view -0
	.cfi_startproc
	@ args = 0, pretend = 0, frame = 0
	@ frame_needed = 0, uses_anonymous_args = 0
	@ link register save eliminated.
	.loc 1 119 2 view .LVU533
	.loc 1 119 16 is_stmt 0 view .LVU534
	ldr	r3, .L108
	str	r0, [r3, #56]
	.loc 1 120 1 view .LVU535
	bx	lr
.L109:
	.align	2
.L108:
	.word	INS
	.cfi_endproc
.LFE786:
	.size	IMU_Sensor_set_update_cb, .-IMU_Sensor_set_update_cb
	.section	.text.IMU_Sensor_set_IMU_temp,"ax",%progbits
	.align	1
	.p2align 2,,3
	.global	IMU_Sensor_set_IMU_temp
	.syntax unified
	.thumb
	.thumb_func
	.type	IMU_Sensor_set_IMU_temp, %function
IMU_Sensor_set_IMU_temp:
.LVL124:
.LFB787:
	.loc 1 124 1 is_stmt 1 view -0
	.cfi_startproc
	@ args = 0, pretend = 0, frame = 0
	@ frame_needed = 0, uses_anonymous_args = 0
	@ link register save eliminated.
	.loc 1 125 2 view .LVU537
	.loc 1 125 14 is_stmt 0 view .LVU538
	ldr	r3, .L111
	vstr.32	s0, [r3]
	.loc 1 126 1 view .LVU539
	bx	lr
.L112:
	.align	2
.L111:
	.word	target_temp
	.cfi_endproc
.LFE787:
	.size	IMU_Sensor_set_IMU_temp, .-IMU_Sensor_set_IMU_temp
	.section	.rodata.IMU_Sensor_trig_init.str1.4,"aMS",%progbits,1
	.align	2
.LC1:
	.ascii	"Error: PWM device %s is not ready\000"
	.align	2
.LC2:
	.ascii	"AccelBias: %f, %f, %f\000"
	.align	2
.LC3:
	.ascii	"AccelBeta: %f, %f, %f\000"
	.align	2
.LC4:
	.ascii	"GyroBias: %f, %f, %f\000"
	.align	2
.LC5:
	.ascii	"No stored bias, using default values\000"
	.align	2
.LC6:
	.ascii	"Please calibrate the sensor\000"
	.align	2
.LC7:
	.ascii	"Init Quaternion: %f, %f, %f, %f\000"
	.align	2
.LC8:
	.ascii	"Accel: %f, %f, %f\000"
	.section	.text.IMU_Sensor_trig_init,"ax",%progbits
	.align	1
	.p2align 2,,3
	.global	IMU_Sensor_trig_init
	.syntax unified
	.thumb
	.thumb_func
	.type	IMU_Sensor_trig_init, %function
IMU_Sensor_trig_init:
.LVL125:
.LFB790:
	.loc 1 308 1 is_stmt 1 view -0
	.cfi_startproc
	@ args = 0, pretend = 0, frame = 192
	@ frame_needed = 0, uses_anonymous_args = 0
	.loc 1 310 2 view .LVU541
.LBB748:
.LBI748:
	.loc 7 604 19 view .LVU542
	.loc 7 607 2 view .LVU543
.LBB749:
.LBI749:
	.loc 7 537 19 view .LVU544
.LBB750:
	.loc 7 540 2 view .LVU545
	.loc 7 541 2 view .LVU546
	.loc 7 542 2 view .LVU547
	.loc 7 543 2 view .LVU548
	.loc 7 545 2 view .LVU549
	.loc 7 545 2 is_stmt 0 view .LVU550
.LBE750:
.LBE749:
.LBE748:
	.loc 1 308 1 view .LVU551
	push	{r4, r5, r6, r7, r8, r9, r10, fp, lr}
	.cfi_def_cfa_offset 36
	.cfi_offset 4, -36
	.cfi_offset 5, -32
	.cfi_offset 6, -28
	.cfi_offset 7, -24
	.cfi_offset 8, -20
	.cfi_offset 9, -16
	.cfi_offset 10, -12
	.cfi_offset 11, -8
	.cfi_offset 14, -4
	vpush.64	{d8, d9}
	.cfi_def_cfa_offset 52
	.cfi_offset 80, -52
	.cfi_offset 81, -48
	.cfi_offset 82, -44
	.cfi_offset 83, -40
	mov	r4, r0
	sub	sp, sp, #244
	.cfi_def_cfa_offset 296
.LVL126:
.LBB765:
.LBB763:
.LBB761:
.LBB751:
.LBI751:
	.loc 8 53 19 is_stmt 1 view .LVU552
.LBB752:
	.loc 8 63 2 view .LVU553
	.loc 8 63 7 view .LVU554
.LBE752:
.LBE751:
.LBE761:
.LBE763:
.LBE765:
	.loc 1 308 1 is_stmt 0 view .LVU555
	mov	r5, r1
.LBB766:
.LBB764:
.LBB762:
.LBB756:
.LBB755:
	.loc 8 63 7 view .LVU556
	.loc 8 63 5 is_stmt 1 view .LVU557
	.loc 8 64 2 view .LVU558
.LVL127:
.LBB753:
.LBI753:
	.loc 7 511 19 view .LVU559
.LBB754:
	.loc 7 515 2 view .LVU560
	.loc 7 518 2 view .LVU561
	.loc 7 518 9 is_stmt 0 view .LVU562
	ldr	r7, .L144+16
	.loc 7 518 12 view .LVU563
	ldr	r8, [r7, #8]
	.loc 7 518 9 view .LVU564
	add	r2, sp, #200
.LVL128:
	.loc 7 518 9 view .LVU565
	ldr	r3, [r8, #4]
	movs	r1, #1
.LVL129:
	.loc 7 518 9 view .LVU566
	mov	r0, r7
.LVL130:
	.loc 7 518 9 view .LVU567
	blx	r3
.LVL131:
	.loc 7 518 9 view .LVU568
.LBE754:
.LBE753:
.LBE755:
.LBE756:
	.loc 7 546 2 is_stmt 1 view .LVU569
	.loc 7 546 5 is_stmt 0 view .LVU570
	cmp	r0, #0
	blt	.L114
	.loc 7 550 2 is_stmt 1 view .LVU571
	.loc 7 550 26 is_stmt 0 view .LVU572
	ldrd	r3, r1, [sp, #200]
	ldr	r6, .L144+20
	umull	r9, r3, r3, r6
	mla	r6, r6, r1, r3
	.loc 7 550 16 view .LVU573
	mov	r0, r9
.LVL132:
	.loc 7 550 16 view .LVU574
	adr	r3, .L144
	ldrd	r2, [r3]
	mov	r1, r6
	bl	__aeabi_uldivmod
.LVL133:
	.loc 7 551 5 view .LVU575
	ldr	r2, .L144+24
	mov	r1, #-1
	cmp	r1, r9
	sbcs	r2, r2, r6
	.loc 7 550 26 view .LVU576
	mov	r10, #0
	.loc 7 550 16 view .LVU577
	mov	r3, r0
.LVL134:
	.loc 7 551 2 is_stmt 1 view .LVU578
	.loc 7 551 5 is_stmt 0 view .LVU579
	bcc	.L114
	.loc 7 555 2 is_stmt 1 view .LVU580
.LVL135:
	.loc 7 556 2 view .LVU581
	.loc 7 560 2 view .LVU582
.LBB757:
.LBI757:
	.loc 8 26 19 view .LVU583
.LBB758:
	.loc 8 38 2 view .LVU584
	.loc 8 38 7 view .LVU585
	.loc 8 38 5 view .LVU586
	.loc 8 39 2 view .LVU587
.LVL136:
.LBB759:
.LBI759:
	.loc 7 483 19 view .LVU588
.LBB760:
	.loc 7 487 2 view .LVU589
	.loc 7 490 2 view .LVU590
	.loc 7 494 2 view .LVU591
	.loc 7 494 9 is_stmt 0 view .LVU592
	str	r10, [sp]
	ldr	r6, [r8]
	mov	r2, r3
	movs	r1, #1
	mov	r0, r7
.LVL137:
	.loc 7 494 9 view .LVU593
	blx	r6
.LVL138:
.L114:
	.loc 7 494 9 view .LVU594
.LBE760:
.LBE759:
.LBE758:
.LBE757:
.LBE762:
.LBE764:
.LBE766:
	.loc 1 312 2 is_stmt 1 view .LVU595
	ldr	r3, .L144+28
	ldr	r2, [r3]
.LVL139:
.LBB767:
.LBI767:
	.loc 5 209 37 view .LVU596
.LBB768:
	.loc 5 211 2 view .LVU597
	.loc 5 211 5 is_stmt 0 view .LVU598
	cbz	r2, .L116
	.loc 5 214 2 is_stmt 1 view .LVU599
	.loc 5 215 12 is_stmt 0 view .LVU600
	ldr	r1, .L144+32
	str	r1, [r2]
.LBE768:
.LBE767:
	.loc 1 313 2 view .LVU601
	ldr	r3, [r3]
.LBB770:
.LBB769:
	.loc 5 214 13 view .LVU602
	ldr	r1, .L144+36
	str	r1, [r2, #4]
	.loc 5 215 2 is_stmt 1 view .LVU603
.LVL140:
	.loc 5 215 2 is_stmt 0 view .LVU604
.LBE769:
.LBE770:
	.loc 1 313 2 is_stmt 1 view .LVU605
.LBB771:
.LBI771:
	.loc 5 218 37 view .LVU606
.LBB772:
	.loc 5 220 2 view .LVU607
	.loc 5 220 5 is_stmt 0 view .LVU608
	cbz	r3, .L116
	.loc 5 223 2 is_stmt 1 view .LVU609
.LBE772:
.LBE771:
.LBB774:
.LBB775:
	.loc 5 231 18 is_stmt 0 view .LVU610
	ldr	r2, .L144+40
	str	r2, [r3, #32]
	.loc 5 232 18 view .LVU611
	subs	r2, r2, #12
	str	r2, [r3, #36]
	.loc 5 233 21 view .LVU612
	movs	r2, #0
	str	r2, [r3, #16]	@ float
	.loc 5 234 21 view .LVU613
	str	r2, [r3, #20]	@ float
.LBE775:
.LBE774:
.LBB777:
.LBB773:
	.loc 5 223 15 view .LVU614
	ldr	r2, .L144+44
	str	r2, [r3, #40]
.LVL141:
	.loc 5 223 15 view .LVU615
.LBE773:
.LBE777:
	.loc 1 314 2 is_stmt 1 view .LVU616
.LBB778:
.LBI774:
	.loc 5 226 37 view .LVU617
.LBB776:
	.loc 5 228 2 view .LVU618
	.loc 5 231 2 view .LVU619
	.loc 5 232 2 view .LVU620
	.loc 5 233 2 view .LVU621
	.loc 5 234 2 view .LVU622
.L116:
	.loc 5 234 2 is_stmt 0 view .LVU623
.LBE776:
.LBE778:
	.loc 1 316 2 is_stmt 1 view .LVU624
.LBB779:
.LBI779:
	.loc 7 938 19 view .LVU625
	.loc 7 940 2 view .LVU626
.LBB780:
.LBI780:
	.file 11 "/home/librgod/zephyr_workspace/motor/app/build/zephyr/include/generated/zephyr/syscalls/device.h"
	.loc 11 49 19 view .LVU627
.LBB781:
	.loc 11 57 2 view .LVU628
	.loc 11 57 7 view .LVU629
	.loc 11 57 5 view .LVU630
	.loc 11 58 2 view .LVU631
	.loc 11 58 9 is_stmt 0 view .LVU632
	ldr	r0, .L144+16
	bl	z_impl_device_is_ready
.LVL142:
	.loc 11 58 9 view .LVU633
	mov	r3, r0
.LBE781:
.LBE780:
.LBE779:
	.loc 1 316 5 view .LVU634
	cmp	r0, #0
	beq	.L142
	.loc 1 322 2 is_stmt 1 view .LVU635
	.loc 1 323 2 view .LVU636
	.loc 1 324 2 view .LVU637
	.loc 1 325 2 view .LVU638
	.loc 1 326 2 view .LVU639
	.loc 1 327 2 view .LVU640
	.loc 1 328 2 view .LVU641
	.loc 1 330 2 view .LVU642
.LBB782:
.LBI782:
	.loc 9 1955 24 view .LVU643
	.loc 9 1957 2 view .LVU644
.LBB783:
.LBI783:
	.loc 10 24 24 view .LVU645
.LBB784:
	.loc 10 26 2 view .LVU646
	.loc 10 26 9 is_stmt 0 view .LVU647
	bl	sys_clock_cycle_get_32
.LVL143:
.LBE784:
.LBE783:
.LBE782:
.LBB785:
.LBB786:
	.loc 1 134 8 view .LVU648
	movs	r3, #0
.LBE786:
.LBE785:
	.loc 1 331 20 view .LVU649
	ldr	fp, .L144+76
.LVL144:
	.loc 1 331 2 is_stmt 1 view .LVU650
	.loc 1 332 2 view .LVU651
.LBB932:
.LBB926:
	.loc 1 134 8 is_stmt 0 view .LVU652
	str	r3, [sp, #64]	@ float
	str	r3, [sp, #68]	@ float
	.loc 1 141 23 view .LVU653
	ldr	r10, .L144+80
.LBE926:
.LBE932:
	.loc 1 331 20 view .LVU654
	str	r0, [fp, #36]	@ unaligned
.LBB933:
.LBB927:
	.loc 1 134 8 view .LVU655
	mov	r3, #1065353216
.LBE927:
.LBE933:
	.loc 1 337 8 view .LVU656
	movs	r7, #0
.LBB934:
.LBB928:
	.loc 1 141 23 view .LVU657
	movs	r2, #0
	.loc 1 134 8 view .LVU658
	str	r3, [sp, #72]	@ float
	.loc 1 141 23 view .LVU659
	movs	r3, #0
	strd	r2, [r10, #328]
.LBE928:
.LBE934:
	.loc 1 335 15 view .LVU660
	strd	r4, r5, [fp, #60]
	.loc 1 337 8 view .LVU661
	strd	r7, r7, [sp, #100]
	strd	r7, r7, [sp, #108]
.LBB935:
.LBB929:
	.loc 1 133 8 view .LVU662
	strd	r7, r7, [sp, #52]
	.loc 1 135 8 view .LVU663
	strd	r7, r7, [sp, #76]
	.loc 1 137 8 view .LVU664
	strd	r7, r7, [sp, #84]
	strd	r7, r7, [sp, #92]
.LBE929:
.LBE935:
	.loc 1 331 20 view .LVU665
	str	r0, [fp, #40]	@ unaligned
	.loc 1 334 2 is_stmt 1 view .LVU666
	.loc 1 337 2 view .LVU667
	.loc 1 338 2 view .LVU668
.LVL145:
.LBB936:
.LBI785:
	.loc 1 130 13 view .LVU669
.LBB930:
	.loc 1 133 2 view .LVU670
	.loc 1 133 8 is_stmt 0 view .LVU671
	str	r7, [sp, #60]
	.loc 1 134 2 is_stmt 1 view .LVU672
	.loc 1 135 2 view .LVU673
	.loc 1 136 2 view .LVU674
.LVL146:
	.loc 1 137 2 view .LVU675
	.loc 1 139 2 view .LVU676
	.loc 1 140 2 view .LVU677
	.loc 1 141 2 view .LVU678
	.loc 1 143 2 view .LVU679
.LBB787:
.LBI787:
	.loc 9 1955 24 view .LVU680
	.loc 9 1957 2 view .LVU681
.LBB788:
.LBI788:
	.loc 10 24 24 view .LVU682
.LBB789:
	.loc 10 26 2 view .LVU683
	.loc 10 26 9 is_stmt 0 view .LVU684
	bl	sys_clock_cycle_get_32
.LVL147:
	.loc 10 26 9 view .LVU685
.LBE789:
.LBE788:
.LBE787:
	.loc 1 143 21 view .LVU686
	str	r0, [fp, #52]
	.loc 1 146 2 is_stmt 1 view .LVU687
	.loc 1 146 21 is_stmt 0 view .LVU688
	str	r0, [fp, #40]
	.loc 1 147 2 is_stmt 1 view .LVU689
.LBB790:
.LBI790:
	.loc 9 1955 24 view .LVU690
	.loc 9 1957 2 view .LVU691
.LBB791:
.LBI791:
	.loc 10 24 24 view .LVU692
.LBB792:
	.loc 10 26 2 view .LVU693
	.loc 10 26 9 is_stmt 0 view .LVU694
	bl	sys_clock_cycle_get_32
.LVL148:
.LBE792:
.LBE791:
.LBE790:
	.loc 1 147 21 view .LVU695
	str	r0, [fp, #52]
	.loc 1 148 2 is_stmt 1 view .LVU696
.LVL149:
.LBB793:
.LBI793:
	.loc 3 78 19 view .LVU697
.LBB794:
	.loc 3 86 2 view .LVU698
	.loc 3 86 7 view .LVU699
	.loc 3 86 5 view .LVU700
	.loc 3 87 2 view .LVU701
.LVL150:
.LBB795:
.LBI795:
	.loc 4 840 19 view .LVU702
.LBB796:
	.loc 4 842 2 view .LVU703
	.loc 4 845 2 view .LVU704
	.loc 4 845 12 is_stmt 0 view .LVU705
	ldr	r3, [r4, #8]
	.loc 4 845 9 view .LVU706
	movs	r1, #64
	ldr	r3, [r3, #12]
	mov	r0, r4
	blx	r3
.LVL151:
	.loc 4 845 9 view .LVU707
.LBE796:
.LBE795:
.LBE794:
.LBE793:
	.loc 1 149 2 is_stmt 1 view .LVU708
.LBB797:
.LBI797:
	.loc 1 59 7 view .LVU709
.LBB798:
	.loc 1 61 2 view .LVU710
	.loc 1 62 2 view .LVU711
.LBB799:
.LBI799:
	.loc 3 125 19 view .LVU712
.LBB800:
	.loc 3 135 2 view .LVU713
	.loc 3 135 7 view .LVU714
	.loc 3 135 5 view .LVU715
	.loc 3 136 2 view .LVU716
.LVL152:
.LBB801:
.LBI801:
	.loc 4 906 19 view .LVU717
.LBB802:
	.loc 4 910 2 view .LVU718
	.loc 4 913 2 view .LVU719
	.loc 4 913 12 is_stmt 0 view .LVU720
	ldr	r3, [r4, #8]
.LBE802:
.LBE801:
.LBE800:
.LBE799:
.LBE798:
.LBE797:
.LBB815:
.LBB816:
.LBB817:
.LBB818:
	.loc 4 1336 45 view .LVU721
	vldr.32	s16, .L144+48
.LBE818:
.LBE817:
.LBE816:
.LBE815:
.LBB907:
.LBB813:
.LBB809:
.LBB807:
.LBB805:
.LBB803:
	.loc 4 913 9 view .LVU722
	ldr	r3, [r3, #16]
.LBE803:
.LBE805:
.LBE807:
.LBE809:
.LBE813:
.LBE907:
.LBB908:
.LBB905:
	.loc 1 164 7 view .LVU723
	vldr.32	s18, .L144+52
	.loc 1 164 6 view .LVU724
	vldr.32	s17, .L144+56
.LBE905:
.LBE908:
.LBB909:
.LBB814:
.LBB810:
.LBB808:
.LBB806:
.LBB804:
	.loc 4 913 9 view .LVU725
	add	r2, sp, #200
.LVL153:
	.loc 4 913 9 view .LVU726
	movs	r1, #12
	mov	r0, r4
	blx	r3
.LVL154:
	.loc 4 913 9 view .LVU727
.LBE804:
.LBE806:
.LBE808:
.LBE810:
	.loc 1 63 2 is_stmt 1 view .LVU728
.LBB811:
.LBI811:
	.loc 4 1323 22 view .LVU729
.LBB812:
	.loc 4 1325 2 view .LVU730
	.loc 4 1325 29 is_stmt 0 view .LVU731
	ldr	r0, [sp, #204]
	bl	__aeabi_i2d
.LVL155:
	.loc 4 1325 47 view .LVU732
	adr	r3, .L144+8
	ldrd	r2, [r3]
	bl	__aeabi_ddiv
.LVL156:
	mov	r8, r0
	.loc 4 1325 9 view .LVU733
	ldr	r0, [sp, #200]
	.loc 4 1325 47 view .LVU734
	mov	r9, r1
	.loc 4 1325 9 view .LVU735
	bl	__aeabi_i2d
.LVL157:
	mov	r3, r1
	mov	r2, r0
	.loc 4 1325 27 view .LVU736
	mov	r1, r9
	mov	r0, r8
	bl	__aeabi_dadd
.LVL158:
.LBE812:
.LBE811:
	.loc 1 63 17 view .LVU737
	bl	__aeabi_d2f
.LVL159:
	ldr	r3, .L144+36
	str	r0, [r3]	@ float
	.loc 1 64 2 is_stmt 1 view .LVU738
.LVL160:
	.loc 1 64 2 is_stmt 0 view .LVU739
.LBE814:
.LBE909:
	.loc 1 150 2 is_stmt 1 view .LVU740
	mov	r0, r4
	mov	r6, #600
	bl	IMU_temp_pwm_set
.LVL161:
	.loc 1 153 2 view .LVU741
	.loc 1 154 2 view .LVU742
.LBB910:
	.loc 1 154 7 view .LVU743
	.loc 1 154 20 view .LVU744
.L121:
.LBB906:
	.loc 1 155 3 view .LVU745
.LBB824:
.LBI824:
	.loc 3 78 19 view .LVU746
.LBB825:
	.loc 3 86 2 view .LVU747
	.loc 3 86 7 view .LVU748
	.loc 3 86 5 view .LVU749
	.loc 3 87 2 view .LVU750
.LVL162:
.LBB826:
.LBI826:
	.loc 4 840 19 view .LVU751
.LBB827:
	.loc 4 842 2 view .LVU752
	.loc 4 845 2 view .LVU753
	.loc 4 845 12 is_stmt 0 view .LVU754
	ldr	r3, [r4, #8]
	.loc 4 845 9 view .LVU755
	movs	r1, #64
	ldr	r3, [r3, #12]
	mov	r0, r4
	blx	r3
.LVL163:
	.loc 4 845 9 view .LVU756
.LBE827:
.LBE826:
.LBE825:
.LBE824:
	.loc 1 156 3 is_stmt 1 view .LVU757
.LBB828:
.LBI828:
	.loc 3 78 19 view .LVU758
.LBB829:
	.loc 3 86 2 view .LVU759
	.loc 3 86 7 view .LVU760
	.loc 3 86 5 view .LVU761
	.loc 3 87 2 view .LVU762
.LVL164:
.LBB830:
.LBI830:
	.loc 4 840 19 view .LVU763
.LBB831:
	.loc 4 842 2 view .LVU764
	.loc 4 845 2 view .LVU765
	.loc 4 845 12 is_stmt 0 view .LVU766
	ldr	r3, [r5, #8]
	.loc 4 845 9 view .LVU767
	movs	r1, #64
	ldr	r3, [r3, #12]
	mov	r0, r5
	blx	r3
.LVL165:
	.loc 4 845 9 view .LVU768
.LBE831:
.LBE830:
.LBE829:
.LBE828:
	.loc 1 157 3 is_stmt 1 view .LVU769
.LBB832:
.LBI832:
	.loc 3 125 19 view .LVU770
.LBB833:
	.loc 3 135 2 view .LVU771
	.loc 3 135 7 view .LVU772
	.loc 3 135 5 view .LVU773
	.loc 3 136 2 view .LVU774
.LVL166:
.LBB834:
.LBI834:
	.loc 4 906 19 view .LVU775
.LBB835:
	.loc 4 910 2 view .LVU776
	.loc 4 913 2 view .LVU777
	.loc 4 913 12 is_stmt 0 view .LVU778
	ldr	r3, [r4, #8]
	.loc 4 913 9 view .LVU779
	add	r2, sp, #116
.LVL167:
	.loc 4 913 9 view .LVU780
	ldr	r3, [r3, #16]
	movs	r1, #3
	mov	r0, r4
	blx	r3
.LVL168:
	.loc 4 913 9 view .LVU781
.LBE835:
.LBE834:
.LBE833:
.LBE832:
	.loc 1 158 3 is_stmt 1 view .LVU782
.LBB836:
.LBI836:
	.loc 3 125 19 view .LVU783
.LBB837:
	.loc 3 135 2 view .LVU784
	.loc 3 135 7 view .LVU785
	.loc 3 135 5 view .LVU786
	.loc 3 136 2 view .LVU787
.LVL169:
.LBB838:
.LBI838:
	.loc 4 906 19 view .LVU788
.LBB839:
	.loc 4 910 2 view .LVU789
	.loc 4 913 2 view .LVU790
	.loc 4 913 12 is_stmt 0 view .LVU791
	ldr	r3, [r5, #8]
	.loc 4 913 9 view .LVU792
	add	r2, sp, #140
.LVL170:
	.loc 4 913 9 view .LVU793
	ldr	r3, [r3, #16]
	movs	r1, #7
	mov	r0, r5
	blx	r3
.LVL171:
	.loc 4 913 9 view .LVU794
.LBE839:
.LBE838:
.LBE837:
.LBE836:
	.loc 1 159 3 is_stmt 1 view .LVU795
.LBB840:
.LBI817:
	.loc 4 1334 21 view .LVU796
.LBB819:
	.loc 4 1336 2 view .LVU797
	.loc 4 1336 28 is_stmt 0 view .LVU798
	vldr.32	s15, [sp, #120]	@ int
.LBE819:
.LBE840:
.LBB841:
.LBB842:
	.loc 4 1336 9 view .LVU799
	vldr.32	s11, [sp, #132]	@ int
.LBE842:
.LBE841:
.LBB845:
.LBB820:
	.loc 4 1336 28 view .LVU800
	vcvt.f32.s32	s14, s15
.LBE820:
.LBE845:
.LBB846:
.LBB847:
	vldr.32	s15, [sp, #128]	@ int
	vcvt.f32.s32	s15, s15
.LBE847:
.LBE846:
.LBB851:
.LBB821:
	.loc 4 1336 45 view .LVU801
	vdiv.f32	s12, s14, s16
.LBE821:
.LBE851:
.LBB852:
.LBB848:
	vdiv.f32	s13, s15, s16
.LBE848:
.LBE852:
.LBB853:
.LBB843:
	.loc 4 1336 28 view .LVU802
	vldr.32	s15, [sp, #136]	@ int
	vcvt.f32.s32	s15, s15
	.loc 4 1336 9 view .LVU803
	vcvt.f32.s32	s11, s11
	.loc 4 1336 45 view .LVU804
	vdiv.f32	s14, s15, s16
.LBE843:
.LBE853:
.LBB854:
.LBB822:
	.loc 4 1336 9 view .LVU805
	vldr.32	s15, [sp, #116]	@ int
	vcvt.f32.s32	s10, s15
.LBE822:
.LBE854:
.LBB855:
.LBB849:
	vldr.32	s15, [sp, #124]	@ int
	vcvt.f32.s32	s15, s15
.LBE849:
.LBE855:
.LBB856:
.LBB823:
	.loc 4 1336 26 view .LVU806
	vadd.f32	s12, s12, s10
.LVL172:
	.loc 4 1336 26 view .LVU807
.LBE823:
.LBE856:
	.loc 1 160 3 is_stmt 1 view .LVU808
.LBB857:
.LBI846:
	.loc 4 1334 21 view .LVU809
.LBB850:
	.loc 4 1336 2 view .LVU810
	.loc 4 1336 26 is_stmt 0 view .LVU811
	vadd.f32	s13, s13, s15
.LVL173:
	.loc 4 1336 26 view .LVU812
.LBE850:
.LBE857:
	.loc 1 161 3 is_stmt 1 view .LVU813
.LBB858:
.LBI841:
	.loc 4 1334 21 view .LVU814
.LBB844:
	.loc 4 1336 2 view .LVU815
	.loc 4 1336 26 is_stmt 0 view .LVU816
	vadd.f32	s14, s14, s11
.LVL174:
	.loc 4 1336 26 view .LVU817
.LBE844:
.LBE858:
	.loc 1 163 3 is_stmt 1 view .LVU818
.LBB859:
.LBI859:
	.loc 6 163 1 view .LVU819
.LBB860:
	.loc 6 165 2 view .LVU820
	.loc 6 171 2 view .LVU821
.LBE860:
.LBE859:
	.loc 1 163 26 is_stmt 0 view .LVU822
	vmul.f32	s15, s12, s12
	.loc 1 163 44 view .LVU823
	vmul.f32	s10, s13, s13
	.loc 1 163 62 view .LVU824
	vmul.f32	s11, s14, s14
	.loc 1 163 35 view .LVU825
	vadd.f32	s15, s15, s10
	.loc 1 163 13 view .LVU826
	vadd.f32	s15, s15, s11
.LVL175:
.LBB862:
.LBB861:
	.loc 6 171 2 view .LVU827
	.syntax unified
@ 171 "/home/librgod/zephyr-sdk-0.17.0/arm-zephyr-eabi/picolibc/include/machine/math.h" 1
	vsqrt.f32 s15, s15
@ 0 "" 2
.LVL176:
	.loc 6 176 2 is_stmt 1 view .LVU828
	.loc 6 176 2 is_stmt 0 view .LVU829
	.thumb
	.syntax unified
.LBE861:
.LBE862:
	.loc 1 164 3 is_stmt 1 view .LVU830
.LBB863:
.LBI863:
	.loc 6 180 1 view .LVU831
.LBB864:
	.loc 6 182 5 view .LVU832
	.loc 6 183 5 view .LVU833
.LBE864:
.LBE863:
	.loc 1 167 3 view .LVU834
	.loc 1 164 7 is_stmt 0 view .LVU835
	vsub.f32	s15, s15, s18
.LVL177:
.LBB866:
.LBB865:
	.loc 6 183 5 view .LVU836
	.syntax unified
@ 183 "/home/librgod/zephyr-sdk-0.17.0/arm-zephyr-eabi/picolibc/include/machine/math.h" 1
	vabs.f32	s15, s15
@ 0 "" 2
.LVL178:
	.loc 6 184 5 is_stmt 1 view .LVU837
	.loc 6 184 5 is_stmt 0 view .LVU838
	.thumb
	.syntax unified
.LBE865:
.LBE866:
	.loc 1 164 6 view .LVU839
	vcmpe.f32	s15, s17
	vmrs	APSR_nzcv, FPSCR
	bgt	.L120
.LBB867:
.LBB868:
	.loc 4 1336 28 view .LVU840
	vldr.32	s15, [sp, #144]	@ int
.LBE868:
.LBE867:
	.loc 1 167 15 view .LVU841
	vldr.32	s7, [sp, #52]
	.loc 1 168 15 view .LVU842
	vldr.32	s8, [sp, #56]
	.loc 1 169 15 view .LVU843
	vldr.32	s9, [sp, #60]
.LBB875:
.LBB869:
	.loc 4 1336 28 view .LVU844
	vcvt.f32.s32	s10, s15
.LBE869:
.LBE875:
.LBB876:
.LBB877:
	vldr.32	s15, [sp, #152]	@ int
	vcvt.f32.s32	s11, s15
.LBE877:
.LBE876:
.LBB882:
.LBB883:
	vldr.32	s15, [sp, #160]	@ int
	vcvt.f32.s32	s15, s15
.LBE883:
.LBE882:
.LBB888:
.LBB870:
	.loc 4 1336 45 view .LVU845
	vdiv.f32	s4, s10, s16
.LBE870:
.LBE888:
	.loc 1 173 13 view .LVU846
	adds	r7, r7, #1
.LVL179:
.LBB889:
.LBB878:
	.loc 4 1336 45 view .LVU847
	vdiv.f32	s5, s11, s16
.LBE878:
.LBE889:
.LBB890:
.LBB884:
	vdiv.f32	s6, s15, s16
.LBE884:
.LBE890:
.LBB891:
.LBB871:
	.loc 4 1336 9 view .LVU848
	vldr.32	s15, [sp, #140]	@ int
.LBE871:
.LBE891:
	.loc 1 170 11 view .LVU849
	vldr.32	s10, [sp, #88]
	.loc 1 171 11 view .LVU850
	vldr.32	s11, [sp, #92]
.LBB892:
.LBB872:
	.loc 4 1336 9 view .LVU851
	vcvt.f32.s32	s1, s15
.LBE872:
.LBE892:
.LBB893:
.LBB879:
	vldr.32	s15, [sp, #148]	@ int
	vcvt.f32.s32	s2, s15
.LBE879:
.LBE893:
.LBB894:
.LBB885:
	vldr.32	s15, [sp, #156]	@ int
	vcvt.f32.s32	s3, s15
.LBE885:
.LBE894:
.LBB895:
.LBB873:
	.loc 4 1336 26 view .LVU852
	vadd.f32	s4, s4, s1
.LBE873:
.LBE895:
	.loc 1 172 11 view .LVU853
	vldr.32	s15, [sp, #96]
.LBB896:
.LBB880:
	.loc 4 1336 26 view .LVU854
	vadd.f32	s5, s5, s2
.LBE880:
.LBE896:
.LBB897:
.LBB886:
	vadd.f32	s6, s6, s3
.LBE886:
.LBE897:
	.loc 1 167 15 view .LVU855
	vadd.f32	s7, s7, s12
	.loc 1 168 15 view .LVU856
	vadd.f32	s8, s8, s13
	.loc 1 169 15 view .LVU857
	vadd.f32	s12, s9, s14
.LVL180:
	.loc 1 170 11 view .LVU858
	vadd.f32	s13, s10, s4
.LVL181:
	.loc 1 171 11 view .LVU859
	vadd.f32	s14, s11, s5
.LVL182:
	.loc 1 172 11 view .LVU860
	vadd.f32	s15, s15, s6
	.loc 1 167 15 view .LVU861
	vstr.32	s7, [sp, #52]
	.loc 1 168 3 is_stmt 1 view .LVU862
	.loc 1 168 15 is_stmt 0 view .LVU863
	vstr.32	s8, [sp, #56]
	.loc 1 169 3 is_stmt 1 view .LVU864
	.loc 1 169 15 is_stmt 0 view .LVU865
	vstr.32	s12, [sp, #60]
	.loc 1 170 3 is_stmt 1 view .LVU866
.LVL183:
.LBB898:
.LBI867:
	.loc 4 1334 21 view .LVU867
.LBB874:
	.loc 4 1336 2 view .LVU868
	.loc 4 1336 2 is_stmt 0 view .LVU869
.LBE874:
.LBE898:
	.loc 1 170 11 view .LVU870
	vstr.32	s13, [sp, #88]
	.loc 1 171 3 is_stmt 1 view .LVU871
.LVL184:
.LBB899:
.LBI876:
	.loc 4 1334 21 view .LVU872
.LBB881:
	.loc 4 1336 2 view .LVU873
	.loc 4 1336 2 is_stmt 0 view .LVU874
.LBE881:
.LBE899:
	.loc 1 171 11 view .LVU875
	vstr.32	s14, [sp, #92]
	.loc 1 172 3 is_stmt 1 view .LVU876
.LVL185:
.LBB900:
.LBI882:
	.loc 4 1334 21 view .LVU877
.LBB887:
	.loc 4 1336 2 view .LVU878
	.loc 4 1336 2 is_stmt 0 view .LVU879
.LBE887:
.LBE900:
	.loc 1 172 11 view .LVU880
	vstr.32	s15, [sp, #96]
	.loc 1 173 3 is_stmt 1 view .LVU881
.LVL186:
	.loc 1 175 3 view .LVU882
.LBB901:
.LBI901:
	.loc 9 579 23 view .LVU883
.LBB902:
	.loc 9 581 2 view .LVU884
.LBB903:
.LBI903:
	.file 12 "/home/librgod/zephyr_workspace/motor/app/build/zephyr/include/generated/zephyr/syscalls/kernel.h"
	.loc 12 126 23 view .LVU885
.LBB904:
	.loc 12 134 2 view .LVU886
	.loc 12 134 7 view .LVU887
	.loc 12 134 5 view .LVU888
	.loc 12 135 2 view .LVU889
	.loc 12 135 9 is_stmt 0 view .LVU890
	movs	r0, #10
	movs	r1, #0
	bl	z_impl_k_sleep
.LVL187:
.L120:
	.loc 12 135 9 view .LVU891
.LBE904:
.LBE903:
.LBE902:
.LBE901:
.LBE906:
	.loc 1 154 27 is_stmt 1 view .LVU892
	.loc 1 154 20 view .LVU893
	subs	r6, r6, #1
	bne	.L121
	.loc 1 154 20 is_stmt 0 view .LVU894
.LBE910:
	.loc 1 183 2 is_stmt 1 view .LVU895
	.loc 1 183 13 is_stmt 0 view .LVU896
	ldr	r3, .L144+60
	str	r3, [r10, #396]	@ float
	.loc 1 186 2 is_stmt 1 view .LVU897
	.loc 1 186 6 is_stmt 0 view .LVU898
	bl	matrix_storage_exists
.LVL188:
	.loc 1 186 5 view .LVU899
	cmp	r0, #0
	beq	.L122
.LBB911:
	.loc 1 187 3 is_stmt 1 view .LVU900
	.loc 1 188 3 view .LVU901
	.loc 1 189 3 view .LVU902
	add	r1, sp, #200
	add	r0, sp, #164
	bl	matrix_storage_read
.LVL189:
	.loc 1 190 3 view .LVU903
	.loc 1 193 25 is_stmt 0 view .LVU904
	ldr	r3, [sp, #176]	@ float
	str	r3, [r10, #376]	@ float
	.loc 1 194 25 view .LVU905
	ldr	r3, [sp, #180]	@ float
	str	r3, [r10, #380]	@ float
	.loc 1 195 25 view .LVU906
	ldr	r3, [sp, #184]	@ float
	str	r3, [r10, #384]	@ float
	.loc 1 196 24 view .LVU907
	ldr	r3, [sp, #188]	@ float
	str	r3, [r10, #352]	@ float
	.loc 1 197 24 view .LVU908
	ldr	r3, [sp, #192]	@ float
	.loc 1 192 37 view .LVU909
	ldr	r0, [sp, #172]	@ float
	.loc 1 190 37 view .LVU910
	ldr	r8, [sp, #164]	@ float
	.loc 1 191 37 view .LVU911
	ldr	r9, [sp, #168]	@ float
	.loc 1 197 24 view .LVU912
	str	r3, [r10, #356]	@ float
	.loc 1 198 24 view .LVU913
	ldr	r3, [sp, #196]	@ float
	str	r3, [r10, #360]	@ float
	.loc 1 192 25 view .LVU914
	str	r0, [r10, #372]	@ float
	.loc 1 190 25 view .LVU915
	str	r8, [r10, #364]	@ float
	.loc 1 191 3 is_stmt 1 view .LVU916
	.loc 1 191 25 is_stmt 0 view .LVU917
	str	r9, [r10, #368]	@ float
	.loc 1 192 3 is_stmt 1 view .LVU918
	.loc 1 193 3 view .LVU919
	.loc 1 194 3 view .LVU920
	.loc 1 195 3 view .LVU921
	.loc 1 196 3 view .LVU922
	.loc 1 197 3 view .LVU923
	.loc 1 198 3 view .LVU924
	.loc 1 199 3 view .LVU925
.LBB912:
	.loc 1 199 8 view .LVU926
	.loc 1 199 315 view .LVU927
	.loc 1 199 14 view .LVU928
	.loc 1 199 2 view .LVU929
	.loc 1 199 13 view .LVU930
.LVL190:
	.loc 1 199 4 view .LVU931
	.loc 1 199 33 view .LVU932
	.loc 1 199 38 view .LVU933
	bl	__aeabi_f2d
.LVL191:
	strd	r0, [sp, #32]
	mov	r0, r9	@ float
	bl	__aeabi_f2d
.LVL192:
	strd	r0, [sp, #24]
	mov	r0, r8	@ float
	bl	__aeabi_f2d
.LVL193:
	ldr	r3, .L144+64
	str	r3, [sp, #8]
	movs	r2, #3
	mov	r3, r6
	strd	r0, [sp, #16]
	strd	r6, r6, [sp]
	ldr	r1, .L144+68
	mov	r0, r6
	bl	z_log_msg_runtime_create.constprop.0
.LVL194:
	.loc 1 199 208 view .LVU934
	.loc 1 199 36 view .LVU935
	.loc 1 199 5 view .LVU936
	.loc 1 199 18 view .LVU937
.LBE912:
	.loc 1 199 6 view .LVU938
	.loc 1 201 3 view .LVU939
.LBB913:
	.loc 1 201 8 view .LVU940
	.loc 1 201 315 view .LVU941
	.loc 1 201 14 view .LVU942
	.loc 1 201 2 view .LVU943
	.loc 1 201 13 view .LVU944
	.loc 1 201 4 view .LVU945
	.loc 1 201 33 view .LVU946
	.loc 1 201 38 view .LVU947
	ldr	r0, [r10, #384]	@ float
	bl	__aeabi_f2d
.LVL195:
	strd	r0, [sp, #32]
	ldr	r0, [r10, #380]	@ float
	bl	__aeabi_f2d
.LVL196:
	strd	r0, [sp, #24]
	ldr	r0, [r10, #376]	@ float
	bl	__aeabi_f2d
.LVL197:
	ldr	r3, .L144+72
	str	r3, [sp, #8]
	movs	r2, #3
	mov	r3, r6
	b	.L145
.L146:
	.align	3
.L144:
	.word	1000000000
	.word	0
	.word	0
	.word	1093567616
	.word	__device_dts_ord_60
	.word	20000000
	.word	999999999
	.word	temp_pwm_pid
	.word	target_temp
	.word	current_temp
	.word	INS+52
	.word	temp_pwm_output
	.word	1232348160
	.word	1092394628
	.word	1042536202
	.word	1092394628
	.word	.LC2
	.word	log_const_imu_task
	.word	.LC3
	.word	INS
	.word	QEKF_INS
.L145:
	strd	r0, [sp, #16]
	strd	r6, r6, [sp]
	ldr	r1, .L147
	mov	r0, r6
	bl	z_log_msg_runtime_create.constprop.0
.LVL198:
	.loc 1 201 208 view .LVU948
	.loc 1 201 36 view .LVU949
	.loc 1 201 5 view .LVU950
	.loc 1 201 18 view .LVU951
.LBE913:
	.loc 1 201 6 view .LVU952
	.loc 1 203 3 view .LVU953
.LBB914:
	.loc 1 203 8 view .LVU954
	.loc 1 203 315 view .LVU955
	.loc 1 203 14 view .LVU956
	.loc 1 203 2 view .LVU957
	.loc 1 203 13 view .LVU958
	.loc 1 203 4 view .LVU959
	.loc 1 203 33 view .LVU960
	.loc 1 203 38 view .LVU961
	ldr	r0, [r10, #360]	@ float
	bl	__aeabi_f2d
.LVL199:
	strd	r0, [sp, #32]
	ldr	r0, [r10, #356]	@ float
	bl	__aeabi_f2d
.LVL200:
	strd	r0, [sp, #24]
	ldr	r0, [r10, #352]	@ float
	bl	__aeabi_f2d
.LVL201:
	ldr	r3, .L147+4
	str	r3, [sp, #8]
	strd	r0, [sp, #16]
	mov	r3, r6
	strd	r6, r6, [sp]
	ldr	r1, .L147
	mov	r0, r6
	movs	r2, #3
	bl	z_log_msg_runtime_create.constprop.0
.LVL202:
	.loc 1 203 204 view .LVU962
	.loc 1 203 36 view .LVU963
	.loc 1 203 5 view .LVU964
	.loc 1 203 18 view .LVU965
.LBE914:
	.loc 1 203 6 view .LVU966
	.loc 1 205 3 view .LVU967
.LBE911:
	.loc 1 220 2 view .LVU968
.LBB915:
	.loc 1 205 26 is_stmt 0 view .LVU969
	movs	r3, #1
	strb	r3, [r10, #520]
.LBE915:
	.loc 1 220 5 view .LVU970
	cmp	r7, #0
	bne	.L124
.LVL203:
.L143:
	.loc 1 221 3 is_stmt 1 view .LVU971
	.loc 1 221 15 is_stmt 0 view .LVU972
	vldr.32	s15, .L147+8
	.loc 1 223 15 view .LVU973
	vldr.32	s11, .L147+12
	.loc 1 221 15 view .LVU974
	vstr.32	s15, [sp, #52]
	.loc 1 222 3 is_stmt 1 view .LVU975
	vmov.f32	s14, s15
	vmov.f32	s13, s11
	vmov.f32	s12, s15
	.loc 1 222 15 is_stmt 0 view .LVU976
	vstr.32	s15, [sp, #56]
	.loc 1 223 3 is_stmt 1 view .LVU977
	.loc 1 223 15 is_stmt 0 view .LVU978
	vstr.32	s11, [sp, #60]
.L125:
	.loc 1 235 2 is_stmt 1 view .LVU979
	.loc 1 239 2 is_stmt 0 view .LVU980
	add	r0, sp, #52
	.loc 1 235 11 view .LVU981
	vstr.32	s12, [fp, #24]
	.loc 1 236 2 is_stmt 1 view .LVU982
	.loc 1 236 11 is_stmt 0 view .LVU983
	vstr.32	s14, [fp, #28]
	.loc 1 237 2 is_stmt 1 view .LVU984
	.loc 1 237 11 is_stmt 0 view .LVU985
	vstr.32	s13, [fp, #32]
	.loc 1 239 2 is_stmt 1 view .LVU986
	bl	Norm3d
.LVL204:
	.loc 1 242 2 view .LVU987
	.loc 1 242 16 is_stmt 0 view .LVU988
	add	r1, sp, #64
	add	r0, sp, #52
	bl	Dot3d
.LVL205:
	bl	acosf
.LVL206:
	.loc 1 243 2 view .LVU989
	add	r2, sp, #76
	add	r1, sp, #64
	add	r0, sp, #52
	.loc 1 242 16 view .LVU990
	vmov.f32	s16, s0
.LVL207:
	.loc 1 243 2 is_stmt 1 view .LVU991
	bl	Cross3d
.LVL208:
	.loc 1 244 2 view .LVU992
	add	r0, sp, #76
	bl	Norm3d
.LVL209:
	.loc 1 245 2 view .LVU993
	.loc 1 245 15 is_stmt 0 view .LVU994
	vmov.f32	s15, #5.0e-1
	vmul.f32	s16, s16, s15
.LVL210:
.LBB916:
	.loc 1 250 37 view .LVU995
	movs	r6, #0
.LBE916:
	.loc 1 245 15 view .LVU996
	vmov.f32	s0, s16
	bl	cosf
.LVL211:
	vmov.f32	s15, s0
.LBB917:
	.loc 1 248 18 view .LVU997
	vmov.f32	s0, s16
	.loc 1 248 12 view .LVU998
	vldr.32	s17, [sp, #76]
.LBE917:
	.loc 1 245 13 view .LVU999
	vstr.32	s15, [sp, #100]
	.loc 1 246 2 is_stmt 1 view .LVU1000
.LBB918:
	.loc 1 246 7 view .LVU1001
.LVL212:
	.loc 1 246 24 view .LVU1002
	.loc 1 247 3 view .LVU1003
	.loc 1 248 18 is_stmt 0 view .LVU1004
	bl	sinf
.LVL213:
	vmov.f32	s15, s0
	.loc 1 248 16 view .LVU1005
	vmul.f32	s15, s15, s17
	.loc 1 248 18 view .LVU1006
	vmov.f32	s0, s16
	.loc 1 247 18 view .LVU1007
	vstr.32	s15, [sp, #104]
	.loc 1 246 29 is_stmt 1 view .LVU1008
.LVL214:
	.loc 1 246 24 view .LVU1009
	.loc 1 247 3 view .LVU1010
	.loc 1 248 12 is_stmt 0 view .LVU1011
	vldr.32	s16, [sp, #80]
	.loc 1 248 18 view .LVU1012
	bl	sinf
.LVL215:
	.loc 1 248 16 view .LVU1013
	vmul.f32	s16, s16, s0
.LBE918:
.LBB919:
	.loc 1 250 37 view .LVU1014
	ldr	r0, [sp, #112]	@ float
.LBE919:
.LBB920:
	.loc 1 247 18 view .LVU1015
	vstr.32	s16, [sp, #108]
	.loc 1 246 29 is_stmt 1 view .LVU1016
.LVL216:
	.loc 1 246 24 view .LVU1017
.LBE920:
	.loc 1 250 2 view .LVU1018
.LBB921:
	.loc 1 250 7 view .LVU1019
	.loc 1 250 314 view .LVU1020
	.loc 1 250 13 view .LVU1021
	.loc 1 250 1 view .LVU1022
	.loc 1 250 12 view .LVU1023
	.loc 1 250 3 view .LVU1024
	.loc 1 250 32 view .LVU1025
	.loc 1 250 37 view .LVU1026
	bl	__aeabi_f2d
.LVL217:
	strd	r0, [sp, #40]
	vmov	r0, s16
	bl	__aeabi_f2d
.LVL218:
	strd	r0, [sp, #32]
	ldr	r0, [sp, #104]	@ float
	bl	__aeabi_f2d
.LVL219:
	strd	r0, [sp, #24]
	ldr	r0, [sp, #100]	@ float
	bl	__aeabi_f2d
.LVL220:
	ldr	r3, .L147+16
	str	r3, [sp, #8]
	movs	r2, #3
	mov	r3, r6
	strd	r0, [sp, #16]
	strd	r6, r6, [sp]
	ldr	r1, .L147
	mov	r0, r6
	bl	z_log_msg_runtime_create.constprop.0
.LVL221:
	.loc 1 250 204 view .LVU1027
	.loc 1 250 35 view .LVU1028
	.loc 1 250 4 view .LVU1029
	.loc 1 250 17 view .LVU1030
.LBE921:
	.loc 1 250 5 view .LVU1031
	.loc 1 252 2 view .LVU1032
.LBB922:
	.loc 1 252 7 view .LVU1033
	.loc 1 252 314 view .LVU1034
	.loc 1 252 13 view .LVU1035
	.loc 1 252 1 view .LVU1036
	.loc 1 252 12 view .LVU1037
	.loc 1 252 3 view .LVU1038
	.loc 1 252 32 view .LVU1039
	.loc 1 252 37 view .LVU1040
	ldr	r0, [sp, #60]	@ float
	bl	__aeabi_f2d
.LVL222:
	strd	r0, [sp, #32]
	ldr	r0, [sp, #56]	@ float
	bl	__aeabi_f2d
.LVL223:
	strd	r0, [sp, #24]
	ldr	r0, [sp, #52]	@ float
	bl	__aeabi_f2d
.LVL224:
	ldr	r3, .L147+20
	str	r3, [sp, #8]
	strd	r0, [sp, #16]
	mov	r3, r6
	ldr	r1, .L147
	movs	r2, #3
	mov	r0, r6
	strd	r6, r6, [sp]
	bl	z_log_msg_runtime_create.constprop.0
.LVL225:
	.loc 1 252 173 view .LVU1041
	.loc 1 252 35 view .LVU1042
	.loc 1 252 4 view .LVU1043
	.loc 1 252 17 view .LVU1044
.LBE922:
	.loc 1 252 5 view .LVU1045
	.loc 1 252 5 is_stmt 0 view .LVU1046
.LBE930:
.LBE936:
	.loc 1 341 2 is_stmt 1 view .LVU1047
	vldr.32	s4, .L147+8
	vldr.32	s3, .L147+24
	vldr.32	s2, .L147+28
	vldr.32	s1, .L147+32
	vmov.f32	s0, #2.0e+1
	add	r0, sp, #100
	bl	IMU_QuaternionEKF_Init
.LVL226:
	.loc 1 346 2 view .LVU1048
.LBB937:
.LBI937:
	.loc 9 1955 24 view .LVU1049
	.loc 9 1957 2 view .LVU1050
.LBB938:
.LBI938:
	.loc 10 24 24 view .LVU1051
.LBB939:
	.loc 10 26 2 view .LVU1052
	.loc 10 26 9 is_stmt 0 view .LVU1053
	bl	sys_clock_cycle_get_32
.LVL227:
	.loc 10 26 9 view .LVU1054
.LBE939:
.LBE938:
.LBE937:
	.loc 1 347 2 is_stmt 1 view .LVU1055
	.loc 1 348 2 view .LVU1056
	.loc 1 349 2 view .LVU1057
	.loc 1 347 20 is_stmt 0 view .LVU1058
	str	r0, [fp, #36]	@ unaligned
	str	r0, [fp, #40]	@ unaligned
	.loc 1 350 2 is_stmt 1 view .LVU1059
	.loc 1 348 20 is_stmt 0 view .LVU1060
	str	r0, [fp, #48]	@ unaligned
	str	r0, [fp, #52]	@ unaligned
	.loc 1 352 2 is_stmt 1 view .LVU1061
.LVL228:
.LBB940:
.LBI940:
	.loc 4 806 19 view .LVU1062
.LBB941:
	.loc 4 810 2 view .LVU1063
	.loc 4 813 2 view .LVU1064
	.loc 4 813 9 is_stmt 0 view .LVU1065
	ldr	r3, [r4, #8]
	ldr	r3, [r3, #8]
	.loc 4 813 5 view .LVU1066
	cbz	r3, .L129
	.loc 4 817 2 is_stmt 1 view .LVU1067
	.loc 4 817 9 is_stmt 0 view .LVU1068
	ldr	r2, .L147+36
	ldr	r1, .L147+40
	mov	r0, r4
.LVL229:
	.loc 4 817 9 view .LVU1069
	blx	r3
.LVL230:
.L129:
	.loc 4 817 9 view .LVU1070
.LBE941:
.LBE940:
	.loc 1 353 2 is_stmt 1 view .LVU1071
.LBB942:
.LBI942:
	.loc 4 806 19 view .LVU1072
.LBB943:
	.loc 4 810 2 view .LVU1073
	.loc 4 813 2 view .LVU1074
	.loc 4 813 9 is_stmt 0 view .LVU1075
	ldr	r3, [r5, #8]
	ldr	r3, [r3, #8]
	.loc 4 813 5 view .LVU1076
	cbz	r3, .L113
	.loc 4 817 2 is_stmt 1 view .LVU1077
	.loc 4 817 9 is_stmt 0 view .LVU1078
	ldr	r2, .L147+36
	ldr	r1, .L147+44
	mov	r0, r5
	blx	r3
.LVL231:
.L113:
	.loc 4 817 9 view .LVU1079
.LBE943:
.LBE942:
	.loc 1 354 1 view .LVU1080
	add	sp, sp, #244
	.cfi_remember_state
	.cfi_def_cfa_offset 52
	@ sp needed
	vldm	sp!, {d8-d9}
	.cfi_restore 82
	.cfi_restore 83
	.cfi_restore 80
	.cfi_restore 81
	.cfi_def_cfa_offset 36
	pop	{r4, r5, r6, r7, r8, r9, r10, fp, pc}
.LVL232:
.L122:
	.cfi_restore_state
.LBB944:
.LBB931:
	.loc 1 207 3 is_stmt 1 view .LVU1081
.LBB923:
	.loc 1 207 8 view .LVU1082
	.loc 1 207 315 view .LVU1083
	.loc 1 207 14 view .LVU1084
	.loc 1 207 2 view .LVU1085
	.loc 1 207 13 view .LVU1086
	.loc 1 207 4 view .LVU1087
	.loc 1 207 33 view .LVU1088
	.loc 1 207 38 view .LVU1089
	ldr	r3, .L147+48
	ldr	r1, .L147
	str	r3, [sp, #8]
	movs	r2, #1
	mov	r3, r6
	strd	r6, r6, [sp]
	bl	z_log_msg_runtime_create.constprop.1
.LVL233:
	.loc 1 207 130 view .LVU1090
	.loc 1 207 36 view .LVU1091
	.loc 1 207 5 view .LVU1092
	.loc 1 207 18 view .LVU1093
.LBE923:
	.loc 1 207 6 view .LVU1094
	.loc 1 208 3 view .LVU1095
.LBB924:
	.loc 1 208 8 view .LVU1096
	.loc 1 208 315 view .LVU1097
	.loc 1 208 14 view .LVU1098
	.loc 1 208 2 view .LVU1099
	.loc 1 208 13 view .LVU1100
	.loc 1 208 4 view .LVU1101
	.loc 1 208 33 view .LVU1102
	.loc 1 208 38 view .LVU1103
	ldr	r3, .L147+52
	str	r3, [sp, #8]
	strd	r6, r6, [sp]
	mov	r3, r6
	ldr	r1, .L147
	mov	r0, r6
	movs	r2, #1
	bl	z_log_msg_runtime_create.constprop.1
.LVL234:
	.loc 1 208 121 view .LVU1104
	.loc 1 208 36 view .LVU1105
	.loc 1 208 5 view .LVU1106
	.loc 1 208 18 view .LVU1107
.LBE924:
	.loc 1 208 6 view .LVU1108
	.loc 1 209 3 view .LVU1109
	.loc 1 212 25 is_stmt 0 view .LVU1110
	movs	r3, #0
	str	r3, [r10, #364]	@ float
	.loc 1 213 25 view .LVU1111
	str	r3, [r10, #368]	@ float
	.loc 1 214 25 view .LVU1112
	str	r3, [r10, #372]	@ float
	.loc 1 215 24 view .LVU1113
	str	r3, [r10, #352]	@ float
	.loc 1 216 24 view .LVU1114
	str	r3, [r10, #356]	@ float
	.loc 1 217 24 view .LVU1115
	str	r3, [r10, #360]	@ float
	.loc 1 209 25 view .LVU1116
	mov	r3, #1065353216
	str	r3, [r10, #376]	@ float
	.loc 1 210 3 is_stmt 1 view .LVU1117
	.loc 1 210 25 is_stmt 0 view .LVU1118
	str	r3, [r10, #380]	@ float
	.loc 1 211 3 is_stmt 1 view .LVU1119
	.loc 1 211 25 is_stmt 0 view .LVU1120
	str	r3, [r10, #384]	@ float
	.loc 1 212 3 is_stmt 1 view .LVU1121
	.loc 1 213 3 view .LVU1122
	.loc 1 214 3 view .LVU1123
	.loc 1 215 3 view .LVU1124
	.loc 1 216 3 view .LVU1125
	.loc 1 217 3 view .LVU1126
	.loc 1 220 2 view .LVU1127
	.loc 1 220 5 is_stmt 0 view .LVU1128
	cmp	r7, #0
	beq	.L143
.LVL235:
.L124:
.LBB925:
	.loc 1 226 16 view .LVU1129
	vmov	s15, r7	@ int
	vldr.32	s13, [sp, #52]
	.loc 1 227 16 view .LVU1130
	vldr.32	s12, [r10, #364]
	.loc 1 228 16 view .LVU1131
	vldr.32	s11, [r10, #376]
	.loc 1 226 16 view .LVU1132
	vcvt.f32.s32	s15, s15
.LVL236:
	.loc 1 226 4 is_stmt 1 view .LVU1133
	.loc 1 227 4 view .LVU1134
	.loc 1 228 4 view .LVU1135
	.loc 1 226 16 is_stmt 0 view .LVU1136
	vdiv.f32	s14, s13, s15
	.loc 1 229 7 view .LVU1137
	vldr.32	s13, [r10, #352]
	.loc 1 227 16 view .LVU1138
	vsub.f32	s14, s14, s12
	.loc 1 229 7 view .LVU1139
	vcmp.f32	s13, #0
	.loc 1 228 16 view .LVU1140
	vdiv.f32	s12, s14, s11
	.loc 1 229 7 view .LVU1141
	vmrs	APSR_nzcv, FPSCR
	.loc 1 228 16 view .LVU1142
	vstr.32	s12, [sp, #52]
	.loc 1 229 4 is_stmt 1 view .LVU1143
	.loc 1 229 7 is_stmt 0 view .LVU1144
	bne	.L126
	.loc 1 230 5 is_stmt 1 view .LVU1145
	.loc 1 230 36 is_stmt 0 view .LVU1146
	vldr.32	s13, [sp, #88]
	vdiv.f32	s14, s13, s15
	.loc 1 230 26 view .LVU1147
	vstr.32	s14, [r10, #352]
.L126:
	.loc 1 225 30 is_stmt 1 view .LVU1148
.LVL237:
	.loc 1 225 25 view .LVU1149
	.loc 1 226 4 view .LVU1150
	.loc 1 227 4 view .LVU1151
	.loc 1 228 4 view .LVU1152
	.loc 1 226 16 is_stmt 0 view .LVU1153
	vldr.32	s11, [sp, #56]
	.loc 1 227 16 view .LVU1154
	vldr.32	s14, [r10, #368]
	.loc 1 228 16 view .LVU1155
	vldr.32	s10, [r10, #380]
	.loc 1 226 16 view .LVU1156
	vdiv.f32	s13, s11, s15
	.loc 1 229 7 view .LVU1157
	vldr.32	s11, [r10, #356]
	.loc 1 227 16 view .LVU1158
	vsub.f32	s13, s13, s14
	.loc 1 229 7 view .LVU1159
	vcmp.f32	s11, #0
	.loc 1 228 16 view .LVU1160
	vdiv.f32	s14, s13, s10
	.loc 1 229 7 view .LVU1161
	vmrs	APSR_nzcv, FPSCR
	.loc 1 228 16 view .LVU1162
	vstr.32	s14, [sp, #56]
	.loc 1 229 4 is_stmt 1 view .LVU1163
	.loc 1 229 7 is_stmt 0 view .LVU1164
	bne	.L127
	.loc 1 230 5 is_stmt 1 view .LVU1165
	.loc 1 230 36 is_stmt 0 view .LVU1166
	vldr.32	s11, [sp, #92]
	vdiv.f32	s13, s11, s15
	.loc 1 230 26 view .LVU1167
	vstr.32	s13, [r10, #356]
.L127:
	.loc 1 225 30 is_stmt 1 view .LVU1168
.LVL238:
	.loc 1 225 25 view .LVU1169
	.loc 1 226 4 view .LVU1170
	.loc 1 227 4 view .LVU1171
	.loc 1 228 4 view .LVU1172
	.loc 1 226 16 is_stmt 0 view .LVU1173
	vldr.32	s10, [sp, #60]
	.loc 1 227 16 view .LVU1174
	vldr.32	s13, [r10, #372]
	.loc 1 228 16 view .LVU1175
	vldr.32	s9, [r10, #384]
	.loc 1 226 16 view .LVU1176
	vdiv.f32	s11, s10, s15
	.loc 1 229 7 view .LVU1177
	vldr.32	s10, [r10, #360]
	.loc 1 227 16 view .LVU1178
	vsub.f32	s11, s11, s13
	.loc 1 229 7 view .LVU1179
	vcmp.f32	s10, #0
	.loc 1 228 16 view .LVU1180
	vdiv.f32	s13, s11, s9
	.loc 1 229 7 view .LVU1181
	vmrs	APSR_nzcv, FPSCR
	.loc 1 228 16 view .LVU1182
	vstr.32	s13, [sp, #60]
	.loc 1 229 4 is_stmt 1 view .LVU1183
	.loc 1 229 7 is_stmt 0 view .LVU1184
	bne	.L125
	.loc 1 230 5 is_stmt 1 view .LVU1185
	.loc 1 230 36 is_stmt 0 view .LVU1186
	vldr.32	s10, [sp, #96]
	vdiv.f32	s11, s10, s15
	.loc 1 230 26 view .LVU1187
	vstr.32	s11, [r10, #360]
	.loc 1 225 30 is_stmt 1 view .LVU1188
.LVL239:
	.loc 1 225 25 view .LVU1189
	b	.L125
.LVL240:
.L142:
	.loc 1 225 25 is_stmt 0 view .LVU1190
.LBE925:
.LBE931:
.LBE944:
	.loc 1 317 3 is_stmt 1 discriminator 7 view .LVU1191
.LBB945:
	.loc 1 317 8 discriminator 7 view .LVU1192
	.loc 1 317 315 discriminator 7 view .LVU1193
	.loc 1 317 14 discriminator 7 view .LVU1194
	.loc 1 317 2 discriminator 7 view .LVU1195
	.loc 1 317 13 discriminator 7 view .LVU1196
	.loc 1 317 4 discriminator 7 view .LVU1197
	.loc 1 317 33 discriminator 7 view .LVU1198
	.loc 1 317 38 discriminator 7 view .LVU1199
	ldr	r1, [r7]
	ldr	r2, .L147+56
	strd	r0, r0, [sp]
	strd	r2, r1, [sp, #8]
	ldr	r1, .L147
	movs	r2, #3
	bl	z_log_msg_runtime_create.constprop.0
.LVL241:
	.loc 1 317 142 discriminator 7 view .LVU1200
	.loc 1 317 36 discriminator 7 view .LVU1201
	.loc 1 317 5 discriminator 7 view .LVU1202
	.loc 1 317 18 discriminator 7 view .LVU1203
.LBE945:
	.loc 1 317 6 discriminator 7 view .LVU1204
	.loc 1 318 3 discriminator 7 view .LVU1205
	.loc 1 354 1 is_stmt 0 discriminator 7 view .LVU1206
	add	sp, sp, #244
	.cfi_def_cfa_offset 52
	@ sp needed
	vldm	sp!, {d8-d9}
	.cfi_restore 82
	.cfi_restore 83
	.cfi_restore 80
	.cfi_restore 81
	.cfi_def_cfa_offset 36
	pop	{r4, r5, r6, r7, r8, r9, r10, fp, pc}
.LVL242:
.L148:
	.loc 1 354 1 discriminator 7 view .LVU1207
	.align	2
.L147:
	.word	log_const_imu_task
	.word	.LC4
	.word	0
	.word	1092394628
	.word	.LC7
	.word	.LC8
	.word	1065346505
	.word	1176256512
	.word	981668463
	.word	IMU_Sensor_trig_handler
	.word	accel_trig
	.word	gyro_trig
	.word	.LC5
	.word	.LC6
	.word	.LC1
	.cfi_endproc
.LFE790:
	.size	IMU_Sensor_trig_init, .-IMU_Sensor_trig_init
	.section	.data.gyro_trig,"aw"
	.align	2
	.type	gyro_trig, %object
	.size	gyro_trig, 4
gyro_trig:
	.short	1
	.short	7
	.section	.data.accel_trig,"aw"
	.align	2
	.type	accel_trig, %object
	.size	accel_trig, 4
accel_trig:
	.short	1
	.short	3
	.global	temp_pwm_pid
	.section	.data.temp_pwm_pid,"aw"
	.align	2
	.type	temp_pwm_pid, %object
	.size	temp_pwm_pid, 4
temp_pwm_pid:
	.word	imu_temp_pid_ins
	.global	imu_temp_pid_ins
	.section	.data.imu_temp_pid_ins,"aw"
	.align	2
	.type	imu_temp_pid_ins, %object
	.size	imu_temp_pid_ins, 44
imu_temp_pid_ins:
	.space	28
	.word	__device_dts_ord_11
	.space	12
	.section	.data.temp_pwm_output,"aw"
	.align	2
	.type	temp_pwm_output, %object
	.size	temp_pwm_output, 4
temp_pwm_output:
	.word	1268241200
	.section	.data.target_temp,"aw"
	.align	2
	.type	target_temp, %object
	.size	target_temp, 4
target_temp:
	.word	1112014848
	.section	.data.current_temp,"aw"
	.align	2
	.type	current_temp, %object
	.size	current_temp, 4
current_temp:
	.word	1103626240
	.global	zb
	.section	.rodata.zb,"a"
	.align	2
	.type	zb, %object
	.size	zb, 12
zb:
	.word	0
	.word	0
	.word	1065353216
	.global	yb
	.section	.rodata.yb,"a"
	.align	2
	.type	yb, %object
	.size	yb, 12
yb:
	.word	0
	.word	1065353216
	.word	0
	.global	xb
	.section	.rodata.xb,"a"
	.align	2
	.type	xb, %object
	.size	xb, 12
xb:
	.word	1065353216
	.word	0
	.word	0
	.global	INS
	.section	.ccm_bss,"aw"
	.align	2
	.type	INS, %object
	.size	INS, 68
INS:
	.space	68
	.section	.bss.gyro_count,"aw",%nobits
	.align	2
	.type	gyro_count, %object
	.size	gyro_count, 4
gyro_count:
	.space	4
	.section	.bss.accel_count,"aw",%nobits
	.align	2
	.type	accel_count, %object
	.size	accel_count, 4
accel_count:
	.space	4
	.global	log_const_imu_task
	.section	.rodata.str1.4,"aMS",%progbits,1
	.align	2
.LC9:
	.ascii	"imu_task\000"
	.section	._log_const.static.log_const_imu_task_,"a"
	.align	2
	.type	log_const_imu_task, %object
	.size	log_const_imu_task, 8
log_const_imu_task:
	.word	.LC9
	.byte	3
	.space	3
	.text
.Letext0:
	.file 13 "/home/librgod/zephyr-sdk-0.17.0/arm-zephyr-eabi/picolibc/include/machine/_default_types.h"
	.file 14 "/home/librgod/zephyr-sdk-0.17.0/arm-zephyr-eabi/lib/gcc/arm-zephyr-eabi/12.2.0/include/stddef.h"
	.file 15 "/home/librgod/zephyr-sdk-0.17.0/arm-zephyr-eabi/picolibc/include/sys/_stdint.h"
	.file 16 "/home/librgod/zephyr_workspace/zephyr/include/zephyr/device.h"
	.file 17 "/home/librgod/zephyr-sdk-0.17.0/arm-zephyr-eabi/lib/gcc/arm-zephyr-eabi/12.2.0/include/stdarg.h"
	.file 18 "/home/librgod/zephyr_workspace/zephyr/include/zephyr/dsp/types.h"
	.file 19 "/home/librgod/zephyr_workspace/zephyr/include/zephyr/sys/dlist.h"
	.file 20 "/home/librgod/zephyr_workspace/zephyr/include/zephyr/sys/atomic_types.h"
	.file 21 "/home/librgod/zephyr_workspace/zephyr/include/zephyr/kernel_structs.h"
	.file 22 "/home/librgod/zephyr_workspace/zephyr/include/zephyr/sys_clock.h"
	.file 23 "/home/librgod/zephyr_workspace/zephyr/include/zephyr/sys/mpsc_lockfree.h"
	.file 24 "/home/librgod/zephyr_workspace/zephyr/include/zephyr/rtio/rtio.h"
	.file 25 "/home/librgod/zephyr_workspace/modules/lib/cmsis-dsp/Include/dsp/matrix_functions.h"
	.file 26 "/home/librgod/zephyr_workspace/motor/include/ares/ekf/kalman_filter.h"
	.file 27 "/home/librgod/zephyr_workspace/motor/include/ares/ekf/QuaternionEKF.h"
	.file 28 "/home/librgod/zephyr_workspace/motor/include/ares/ekf/imu_task.h"
	.file 29 "/home/librgod/zephyr_workspace/zephyr/include/zephyr/logging/log_instance.h"
	.file 30 "/home/librgod/zephyr-sdk-0.17.0/arm-zephyr-eabi/picolibc/include/math.h"
	.file 31 "/home/librgod/zephyr_workspace/motor/include/ares/ekf/algorithm.h"
	.file 32 "/home/librgod/zephyr_workspace/motor/include/ares/ekf/matrix_storage.h"
	.file 33 "<built-in>"