	.cpu cortex-m4
	.arch armv7e-m
	.fpu fpv4-sp-d16
	.eabi_attribute 27, 1
	.eabi_attribute 28, 1
	.eabi_attribute 20, 1
	.eabi_attribute 21, 1
	.eabi_attribute 23, 3
	.eabi_attribute 24, 1
	.eabi_attribute 25, 1
	.eabi_attribute 26, 1
	.eabi_attribute 30, 2
	.eabi_attribute 34, 1
	.eabi_attribute 38, 1
	.eabi_attribute 18, 4
	.file	"kalman_filter.c"
	.text
.Ltext0:
	.cfi_sections	.debug_frame
	.file 1 "/home/librgod/zephyr_workspace/motor/include/ares/ekf/kalman_filter.c"
	.section	.text.Kalman_Filter_Init,"ax",%progbits
	.align	1
	.p2align 2,,3
	.global	Kalman_Filter_Init
	.syntax unified
	.thumb
	.thumb_func
	.type	Kalman_Filter_Init, %function
Kalman_Filter_Init:
.LVL0:
.LFB695:
	.loc 1 149 1 view -0
	.cfi_startproc
	@ args = 0, pretend = 0, frame = 0
	@ frame_needed = 0, uses_anonymous_args = 0
	.loc 1 150 2 view .LVU1
	.loc 1 149 1 is_stmt 0 view .LVU2
	push	{r3, r4, r5, r6, r7, r8, r9, lr}
	.cfi_def_cfa_offset 32
	.cfi_offset 3, -32
	.cfi_offset 4, -28
	.cfi_offset 5, -24
	.cfi_offset 6, -20
	.cfi_offset 7, -16
	.cfi_offset 8, -12
	.cfi_offset 9, -8
	.cfi_offset 14, -4
	.loc 1 150 15 view .LVU3
	ldr	r5, .L10
	.loc 1 154 12 view .LVU4
	strb	r2, [r0, #13]
	.loc 1 149 1 view .LVU5
	mov	r6, r3
	.loc 1 158 24 view .LVU6
	mov	r9, #0
	.loc 1 149 1 view .LVU7
	mov	r8, r2
	.loc 1 155 12 view .LVU8
	strb	r3, [r0, #14]
	.loc 1 150 15 view .LVU9
	movs	r2, #4
.LVL1:
	.loc 1 151 16 view .LVU10
	ldr	r3, .L10+4
.LVL2:
	.loc 1 153 15 view .LVU11
	strb	r1, [r0, #12]
	.loc 1 149 1 view .LVU12
	mov	r4, r0
	.loc 1 158 24 view .LVU13
	strh	r9, [r0, #15]	@ unaligned
	.loc 1 150 15 view .LVU14
	strh	r2, [r5]	@ movhi
	.loc 1 151 2 is_stmt 1 view .LVU15
	.loc 1 161 34 is_stmt 0 view .LVU16
	mov	r0, r6
.LVL3:
	.loc 1 151 16 view .LVU17
	movs	r2, #8
	strh	r2, [r3]	@ movhi
	.loc 1 153 2 is_stmt 1 view .LVU18
	.loc 1 154 2 view .LVU19
	.loc 1 155 2 view .LVU20
	.loc 1 157 2 view .LVU21
	.loc 1 158 2 view .LVU22
	.loc 1 161 2 view .LVU23
	.loc 1 149 1 is_stmt 0 view .LVU24
	mov	r7, r1
	.loc 1 161 34 view .LVU25
	bl	malloc
.LVL4:
	.loc 1 162 2 view .LVU26
	mov	r2, r6
	mov	r1, r9
	.loc 1 161 21 view .LVU27
	str	r0, [r4, #20]
	.loc 1 162 2 is_stmt 1 view .LVU28
	bl	memset
.LVL5:
	.loc 1 163 2 view .LVU29
	.loc 1 163 55 is_stmt 0 view .LVU30
	ldrh	r0, [r5]
	.loc 1 163 35 view .LVU31
	mul	r0, r6, r0
	bl	malloc
.LVL6:
	.loc 1 164 48 view .LVU32
	ldrh	r2, [r5]
	.loc 1 163 24 view .LVU33
	str	r0, [r4, #24]
	.loc 1 164 2 is_stmt 1 view .LVU34
	mul	r2, r6, r2
	mov	r1, r9
	bl	memset
.LVL7:
	.loc 1 165 2 view .LVU35
	.loc 1 165 59 is_stmt 0 view .LVU36
	ldrh	r0, [r5]
	.loc 1 165 39 view .LVU37
	mul	r0, r6, r0
	bl	malloc
.LVL8:
	.loc 1 166 52 view .LVU38
	ldrh	r2, [r5]
	.loc 1 165 28 view .LVU39
	str	r0, [r4, #28]
	.loc 1 166 2 is_stmt 1 view .LVU40
	mul	r2, r6, r2
	mov	r1, r9
	bl	memset
.LVL9:
	.loc 1 167 2 view .LVU41
	.loc 1 167 54 is_stmt 0 view .LVU42
	ldrh	r0, [r5]
	.loc 1 167 34 view .LVU43
	mul	r0, r7, r0
	bl	malloc
.LVL10:
	.loc 1 168 47 view .LVU44
	ldrh	r2, [r5]
	.loc 1 167 23 view .LVU45
	str	r0, [r4, #32]
	.loc 1 168 2 is_stmt 1 view .LVU46
	mul	r2, r7, r2
	mov	r1, r9
	bl	memset
.LVL11:
	.loc 1 169 2 view .LVU47
	.loc 1 169 24 is_stmt 0 view .LVU48
	mov	r0, r6
	bl	malloc
.LVL12:
	.loc 1 170 2 view .LVU49
	mov	r2, r6
	mov	r1, r9
	.loc 1 169 11 view .LVU50
	str	r0, [r4, #36]
	.loc 1 170 2 is_stmt 1 view .LVU51
	bl	memset
.LVL13:
	.loc 1 173 2 view .LVU52
	.loc 1 173 51 is_stmt 0 view .LVU53
	ldrh	r0, [r5]
	.loc 1 173 31 view .LVU54
	mul	r0, r7, r0
	bl	malloc
.LVL14:
	.loc 1 174 44 view .LVU55
	ldrh	r2, [r5]
	.loc 1 173 20 view .LVU56
	str	r0, [r4]
	.loc 1 174 2 is_stmt 1 view .LVU57
	mul	r2, r7, r2
	mov	r1, r9
	bl	memset
.LVL15:
	.loc 1 175 2 view .LVU58
	.loc 1 175 52 is_stmt 0 view .LVU59
	ldrh	r0, [r5]
	.loc 1 175 32 view .LVU60
	mul	r0, r6, r0
	bl	malloc
.LVL16:
	.loc 1 176 45 view .LVU61
	ldrh	r2, [r5]
	.loc 1 175 21 view .LVU62
	str	r0, [r4, #4]
	.loc 1 176 2 is_stmt 1 view .LVU63
	mul	r2, r6, r2
	mov	r1, r9
	bl	memset
.LVL17:
	.loc 1 177 2 view .LVU64
	.loc 1 177 51 is_stmt 0 view .LVU65
	ldrh	r0, [r5]
	.loc 1 177 31 view .LVU66
	mul	r0, r8, r0
	bl	malloc
.LVL18:
	.loc 1 178 44 view .LVU67
	ldrh	r2, [r5]
	.loc 1 177 20 view .LVU68
	str	r0, [r4, #8]
	.loc 1 178 2 is_stmt 1 view .LVU69
	mul	r2, r8, r2
	mov	r1, r9
	bl	memset
.LVL19:
	.loc 1 181 2 view .LVU70
	.loc 1 181 47 is_stmt 0 view .LVU71
	ldrh	r0, [r5]
	.loc 1 181 27 view .LVU72
	mul	r0, r7, r0
	bl	malloc
.LVL20:
	.loc 1 182 40 view .LVU73
	ldrh	r2, [r5]
	.loc 1 181 16 view .LVU74
	str	r0, [r4, #232]
	.loc 1 182 2 is_stmt 1 view .LVU75
	mul	r2, r7, r2
	mov	r1, r9
	bl	memset
.LVL21:
	.loc 1 183 2 view .LVU76
	ldr	r3, [r4, #232]
	ldrb	r1, [r4, #12]	@ zero_extendqisi2
	movs	r2, #1
	add	r0, r4, #48
	bl	arm_mat_init_f32
.LVL22:
	.loc 1 186 2 view .LVU77
	.loc 1 186 52 is_stmt 0 view .LVU78
	ldrh	r0, [r5]
	.loc 1 186 32 view .LVU79
	mul	r0, r7, r0
	bl	malloc
.LVL23:
	.loc 1 187 45 view .LVU80
	ldrh	r2, [r5]
	.loc 1 186 21 view .LVU81
	str	r0, [r4, #236]
	.loc 1 187 2 is_stmt 1 view .LVU82
	mul	r2, r7, r2
	mov	r1, r9
	bl	memset
.LVL24:
	.loc 1 188 2 view .LVU83
	ldr	r3, [r4, #236]
	ldrb	r1, [r4, #12]	@ zero_extendqisi2
	movs	r2, #1
	add	r0, r4, #56
	bl	arm_mat_init_f32
.LVL25:
	.loc 1 190 2 view .LVU84
	.loc 1 190 5 is_stmt 0 view .LVU85
	cmp	r8, #0
	bne	.L8
	.loc 1 196 3 is_stmt 1 view .LVU86
	.loc 1 198 17 is_stmt 0 view .LVU87
	strd	r8, r8, [r4, #64]
	.loc 1 196 14 view .LVU88
	str	r8, [r4, #240]
	.loc 1 197 3 is_stmt 1 view .LVU89
.L3:
	.loc 1 203 2 view .LVU90
	.loc 1 203 44 is_stmt 0 view .LVU91
	ldrh	r0, [r5]
	.loc 1 203 24 view .LVU92
	mul	r0, r6, r0
	bl	malloc
.LVL26:
	.loc 1 204 37 view .LVU93
	ldrh	r2, [r5]
	.loc 1 203 13 view .LVU94
	str	r0, [r4, #244]
	.loc 1 204 2 is_stmt 1 view .LVU95
	mul	r2, r6, r2
	movs	r1, #0
	bl	memset
.LVL27:
	.loc 1 205 2 view .LVU96
	ldr	r3, [r4, #244]
	ldrb	r1, [r4, #14]	@ zero_extendqisi2
	movs	r2, #1
	add	r0, r4, #72
	bl	arm_mat_init_f32
.LVL28:
	.loc 1 208 2 view .LVU97
	.loc 1 208 44 is_stmt 0 view .LVU98
	ldrh	r0, [r5]
	.loc 1 208 55 view .LVU99
	smulbb	r9, r7, r7
	.loc 1 208 24 view .LVU100
	mul	r0, r9, r0
	bl	malloc
.LVL29:
	.loc 1 209 37 view .LVU101
	ldrh	r2, [r5]
	.loc 1 208 13 view .LVU102
	str	r0, [r4, #248]
	.loc 1 209 2 is_stmt 1 view .LVU103
	mul	r2, r9, r2
	movs	r1, #0
	bl	memset
.LVL30:
	.loc 1 210 2 view .LVU104
	ldrb	r2, [r4, #12]	@ zero_extendqisi2
	ldr	r3, [r4, #248]
	mov	r1, r2
	add	r0, r4, #80
	bl	arm_mat_init_f32
.LVL31:
	.loc 1 213 2 view .LVU105
	.loc 1 213 49 is_stmt 0 view .LVU106
	ldrh	r0, [r5]
	.loc 1 213 29 view .LVU107
	mul	r0, r9, r0
	bl	malloc
.LVL32:
	.loc 1 214 42 view .LVU108
	ldrh	r2, [r5]
	.loc 1 213 18 view .LVU109
	str	r0, [r4, #252]
	.loc 1 214 2 is_stmt 1 view .LVU110
	mul	r2, r9, r2
	movs	r1, #0
	bl	memset
.LVL33:
	.loc 1 215 2 view .LVU111
	ldrb	r2, [r4, #12]	@ zero_extendqisi2
	ldr	r3, [r4, #252]
	mov	r1, r2
	add	r0, r4, #88
	bl	arm_mat_init_f32
.LVL34:
	.loc 1 218 2 view .LVU112
	.loc 1 218 44 is_stmt 0 view .LVU113
	ldrh	r0, [r5]
	.loc 1 218 24 view .LVU114
	mul	r0, r9, r0
	bl	malloc
.LVL35:
	.loc 1 218 13 view .LVU115
	str	r0, [r4, #256]
	.loc 1 219 2 is_stmt 1 view .LVU116
	.loc 1 219 45 is_stmt 0 view .LVU117
	ldrh	r0, [r5]
	.loc 1 219 25 view .LVU118
	mul	r0, r9, r0
	bl	malloc
.LVL36:
	.loc 1 220 37 view .LVU119
	ldrh	r2, [r5]
	.loc 1 219 14 view .LVU120
	str	r0, [r4, #260]
	.loc 1 220 2 is_stmt 1 view .LVU121
	mul	r2, r9, r2
	movs	r1, #0
	ldr	r0, [r4, #256]
	bl	memset
.LVL37:
	.loc 1 221 2 view .LVU122
	.loc 1 221 38 is_stmt 0 view .LVU123
	ldrh	r2, [r5]
	.loc 1 221 2 view .LVU124
	ldr	r0, [r4, #260]
	mul	r2, r9, r2
	movs	r1, #0
	bl	memset
.LVL38:
	.loc 1 222 2 is_stmt 1 view .LVU125
	ldrb	r2, [r4, #12]	@ zero_extendqisi2
	ldr	r3, [r4, #256]
	mov	r1, r2
	add	r0, r4, #96
	bl	arm_mat_init_f32
.LVL39:
	.loc 1 223 2 view .LVU126
	ldrb	r2, [r4, #12]	@ zero_extendqisi2
	ldr	r3, [r4, #260]
	mov	r1, r2
	add	r0, r4, #104
	bl	arm_mat_init_f32
.LVL40:
	.loc 1 225 2 view .LVU127
	.loc 1 225 5 is_stmt 0 view .LVU128
	cmp	r8, #0
	bne	.L9
	.loc 1 231 3 is_stmt 1 view .LVU129
	.loc 1 233 17 is_stmt 0 view .LVU130
	strd	r8, r8, [r4, #112]
	.loc 1 231 14 view .LVU131
	str	r8, [r4, #264]
	b	.L11
.L12:
	.align	2
.L10:
	.word	sizeof_float
	.word	sizeof_double
.L11:
	.loc 1 232 3 is_stmt 1 view .LVU132
.L5:
	.loc 1 238 2 view .LVU133
	.loc 1 238 44 is_stmt 0 view .LVU134
	ldrh	r0, [r5]
	mul	r0, r6, r0
	.loc 1 238 24 view .LVU135
	mul	r0, r7, r0
	bl	malloc
.LVL41:
	.loc 1 238 13 view .LVU136
	str	r0, [r4, #268]
	.loc 1 239 2 is_stmt 1 view .LVU137
	.loc 1 239 45 is_stmt 0 view .LVU138
	ldrh	r0, [r5]
	.loc 1 239 56 view .LVU139
	mul	r0, r6, r0
	.loc 1 239 25 view .LVU140
	mul	r0, r7, r0
	bl	malloc
.LVL42:
	.loc 1 240 37 view .LVU141
	ldrh	r2, [r5]
	.loc 1 239 14 view .LVU142
	str	r0, [r4, #272]
	.loc 1 240 2 is_stmt 1 view .LVU143
	.loc 1 240 37 is_stmt 0 view .LVU144
	mul	r2, r6, r2
	.loc 1 240 2 view .LVU145
	mul	r2, r7, r2
	movs	r1, #0
	ldr	r0, [r4, #268]
	bl	memset
.LVL43:
	.loc 1 241 2 is_stmt 1 view .LVU146
	.loc 1 241 38 is_stmt 0 view .LVU147
	ldrh	r2, [r5]
	.loc 1 241 2 view .LVU148
	ldr	r0, [r4, #272]
	.loc 1 241 49 view .LVU149
	mul	r2, r6, r2
	.loc 1 241 2 view .LVU150
	mul	r2, r7, r2
	movs	r1, #0
	bl	memset
.LVL44:
	.loc 1 242 2 is_stmt 1 view .LVU151
	ldr	r3, [r4, #268]
	ldrb	r2, [r4, #12]	@ zero_extendqisi2
	ldrb	r1, [r4, #14]	@ zero_extendqisi2
	add	r0, r4, #120
	bl	arm_mat_init_f32
.LVL45:
	.loc 1 243 2 view .LVU152
	ldr	r3, [r4, #272]
	ldrb	r2, [r4, #14]	@ zero_extendqisi2
	ldrb	r1, [r4, #12]	@ zero_extendqisi2
	add	r0, r4, #128
	bl	arm_mat_init_f32
.LVL46:
	.loc 1 246 2 view .LVU153
	.loc 1 246 44 is_stmt 0 view .LVU154
	ldrh	r0, [r5]
	.loc 1 246 24 view .LVU155
	mul	r0, r9, r0
	bl	malloc
.LVL47:
	.loc 1 247 37 view .LVU156
	ldrh	r2, [r5]
	.loc 1 246 13 view .LVU157
	str	r0, [r4, #276]
	.loc 1 247 2 is_stmt 1 view .LVU158
	mul	r2, r9, r2
	movs	r1, #0
	bl	memset
.LVL48:
	.loc 1 248 2 view .LVU159
	ldrb	r2, [r4, #12]	@ zero_extendqisi2
	ldr	r3, [r4, #276]
	mov	r1, r2
	add	r0, r4, #136
	bl	arm_mat_init_f32
.LVL49:
	.loc 1 251 2 view .LVU160
	.loc 1 251 44 is_stmt 0 view .LVU161
	ldrh	r0, [r5]
	.loc 1 251 52 view .LVU162
	smulbb	r8, r6, r6
	.loc 1 251 24 view .LVU163
	mul	r0, r8, r0
	bl	malloc
.LVL50:
	.loc 1 252 37 view .LVU164
	ldrh	r2, [r5]
	.loc 1 251 13 view .LVU165
	str	r0, [r4, #280]
	.loc 1 252 2 is_stmt 1 view .LVU166
	mul	r2, r8, r2
	movs	r1, #0
	bl	memset
.LVL51:
	.loc 1 253 2 view .LVU167
	ldrb	r2, [r4, #14]	@ zero_extendqisi2
	ldr	r3, [r4, #280]
	mov	r1, r2
	add	r0, r4, #144
	bl	arm_mat_init_f32
.LVL52:
	.loc 1 256 2 view .LVU168
	.loc 1 256 44 is_stmt 0 view .LVU169
	ldrh	r0, [r5]
	.loc 1 256 55 view .LVU170
	mul	r0, r6, r0
	.loc 1 256 24 view .LVU171
	mul	r0, r7, r0
	bl	malloc
.LVL53:
	.loc 1 257 37 view .LVU172
	ldrh	r2, [r5]
	.loc 1 256 13 view .LVU173
	str	r0, [r4, #284]
	.loc 1 257 2 is_stmt 1 view .LVU174
	.loc 1 257 48 is_stmt 0 view .LVU175
	mul	r2, r6, r2
	.loc 1 257 2 view .LVU176
	mul	r2, r7, r2
	movs	r1, #0
	bl	memset
.LVL54:
	.loc 1 258 2 is_stmt 1 view .LVU177
	ldrb	r1, [r4, #12]	@ zero_extendqisi2
	ldrb	r2, [r4, #14]	@ zero_extendqisi2
	ldr	r3, [r4, #284]
	add	r0, r4, #152
	bl	arm_mat_init_f32
.LVL55:
	.loc 1 261 2 view .LVU178
	.loc 1 261 48 is_stmt 0 view .LVU179
	ldrb	r3, [r4, #12]	@ zero_extendqisi2
	.loc 1 261 44 view .LVU180
	ldrh	r0, [r5]
	.loc 1 261 59 view .LVU181
	smulbb	r3, r3, r3
	.loc 1 261 24 view .LVU182
	mul	r0, r3, r0
	bl	malloc
.LVL56:
	.loc 1 262 58 view .LVU183
	ldrb	r3, [r4, #12]	@ zero_extendqisi2
	.loc 1 262 54 view .LVU184
	ldrh	r2, [r5]
	.loc 1 261 13 view .LVU185
	str	r0, [r4, #288]
	.loc 1 262 2 is_stmt 1 view .LVU186
	.loc 1 262 69 is_stmt 0 view .LVU187
	smulbb	r3, r3, r3
	.loc 1 262 34 view .LVU188
	mul	r0, r3, r2
	bl	malloc
.LVL57:
	.loc 1 263 59 view .LVU189
	ldrb	r3, [r4, #12]	@ zero_extendqisi2
	.loc 1 263 55 view .LVU190
	ldrh	r2, [r5]
	.loc 1 262 23 view .LVU191
	str	r0, [r4, #292]
	.loc 1 263 2 is_stmt 1 view .LVU192
	.loc 1 263 70 is_stmt 0 view .LVU193
	smulbb	r3, r3, r3
	.loc 1 263 35 view .LVU194
	mul	r0, r3, r2
	bl	malloc
.LVL58:
	.loc 1 264 54 view .LVU195
	ldrh	r3, [r5]
	.loc 1 264 58 view .LVU196
	ldrb	r2, [r4, #12]	@ zero_extendqisi2
	.loc 1 263 24 view .LVU197
	str	r0, [r4, #296]
	.loc 1 264 2 is_stmt 1 view .LVU198
	.loc 1 264 34 is_stmt 0 view .LVU199
	mul	r0, r2, r3
	bl	malloc
.LVL59:
	.loc 1 265 55 view .LVU200
	ldrh	r3, [r5]
	.loc 1 265 59 view .LVU201
	ldrb	r2, [r4, #12]	@ zero_extendqisi2
	.loc 1 264 23 view .LVU202
	str	r0, [r4, #300]
	.loc 1 265 2 is_stmt 1 view .LVU203
	.loc 1 265 35 is_stmt 0 view .LVU204
	mul	r0, r2, r3
	bl	malloc
.LVL60:
	.loc 1 266 41 view .LVU205
	ldrb	r3, [r4, #12]	@ zero_extendqisi2
	.loc 1 266 37 view .LVU206
	ldrh	r2, [r5]
	.loc 1 265 24 view .LVU207
	str	r0, [r4, #304]
	.loc 1 266 2 is_stmt 1 view .LVU208
	.loc 1 266 52 is_stmt 0 view .LVU209
	smulbb	r3, r3, r3
	.loc 1 266 2 view .LVU210
	mul	r2, r3, r2
	movs	r1, #0
	ldr	r0, [r4, #288]
	bl	memset
.LVL61:
	.loc 1 267 2 is_stmt 1 view .LVU211
	.loc 1 267 51 is_stmt 0 view .LVU212
	ldrb	r3, [r4, #12]	@ zero_extendqisi2
	.loc 1 267 47 view .LVU213
	ldrh	r2, [r5]
	.loc 1 267 2 view .LVU214
	ldr	r0, [r4, #292]
	.loc 1 267 62 view .LVU215
	smulbb	r3, r3, r3
	.loc 1 267 2 view .LVU216
	mul	r2, r3, r2
	movs	r1, #0
	bl	memset
.LVL62:
	.loc 1 268 2 is_stmt 1 view .LVU217
	.loc 1 268 52 is_stmt 0 view .LVU218
	ldrb	r3, [r4, #12]	@ zero_extendqisi2
	.loc 1 268 48 view .LVU219
	ldrh	r2, [r5]
	.loc 1 268 2 view .LVU220
	ldr	r0, [r4, #296]
	.loc 1 268 63 view .LVU221
	smulbb	r3, r3, r3
	.loc 1 268 2 view .LVU222
	mul	r2, r3, r2
	movs	r1, #0
	bl	memset
.LVL63:
	.loc 1 269 2 is_stmt 1 view .LVU223
	.loc 1 269 47 is_stmt 0 view .LVU224
	ldrh	r3, [r5]
	.loc 1 269 51 view .LVU225
	ldrb	r2, [r4, #12]	@ zero_extendqisi2
	.loc 1 269 2 view .LVU226
	ldr	r0, [r4, #300]
	mul	r2, r3, r2
	movs	r1, #0
	bl	memset
.LVL64:
	.loc 1 270 2 is_stmt 1 view .LVU227
	.loc 1 270 48 is_stmt 0 view .LVU228
	ldrh	r3, [r5]
	.loc 1 270 52 view .LVU229
	ldrb	r2, [r4, #12]	@ zero_extendqisi2
	.loc 1 270 2 view .LVU230
	ldr	r0, [r4, #304]
	mul	r2, r3, r2
	movs	r1, #0
	bl	memset
.LVL65:
	.loc 1 271 2 is_stmt 1 view .LVU231
	ldrb	r2, [r4, #12]	@ zero_extendqisi2
	ldr	r3, [r4, #288]
	mov	r1, r2
	add	r0, r4, #160
	bl	arm_mat_init_f32
.LVL66:
	.loc 1 272 2 view .LVU232
	ldrb	r2, [r4, #12]	@ zero_extendqisi2
	ldr	r3, [r4, #292]
	mov	r1, r2
	add	r0, r4, #168
	bl	arm_mat_init_f32
.LVL67:
	.loc 1 273 2 view .LVU233
	ldrb	r2, [r4, #12]	@ zero_extendqisi2
	ldr	r3, [r4, #296]
	mov	r1, r2
	add	r0, r4, #176
	bl	arm_mat_init_f32
.LVL68:
	.loc 1 274 2 view .LVU234
	ldr	r3, [r4, #300]
	ldrb	r1, [r4, #12]	@ zero_extendqisi2
	movs	r2, #1
	add	r0, r4, #184
	bl	arm_mat_init_f32
.LVL69:
	.loc 1 275 2 view .LVU235
	ldr	r3, [r4, #304]
	ldrb	r1, [r4, #12]	@ zero_extendqisi2
	movs	r2, #1
	add	r0, r4, #192
	bl	arm_mat_init_f32
.LVL70:
	.loc 1 278 2 view .LVU236
	.loc 1 278 19 is_stmt 0 view .LVU237
	movs	r3, #0
	.loc 1 279 19 view .LVU238
	strd	r3, r3, [r4, #204]
	.loc 1 280 2 is_stmt 1 view .LVU239
	.loc 1 281 19 is_stmt 0 view .LVU240
	strd	r3, r3, [r4, #212]
	.loc 1 282 2 is_stmt 1 view .LVU241
	.loc 1 283 19 is_stmt 0 view .LVU242
	strd	r3, r3, [r4, #220]
	.loc 1 284 2 is_stmt 1 view .LVU243
	.loc 1 284 19 is_stmt 0 view .LVU244
	str	r3, [r4, #228]
	.loc 1 287 2 is_stmt 1 view .LVU245
	.loc 1 288 2 view .LVU246
	.loc 1 289 2 view .LVU247
	.loc 1 290 2 view .LVU248
	.loc 1 287 14 is_stmt 0 view .LVU249
	str	r3, [r4, #40]
	.loc 1 291 2 is_stmt 1 view .LVU250
	.loc 1 291 14 is_stmt 0 view .LVU251
	strb	r3, [r4, #44]
	.loc 1 294 2 is_stmt 1 view .LVU252
	.loc 1 294 16 is_stmt 0 view .LVU253
	strb	r3, [r4, #200]
	.loc 1 295 1 view .LVU254
	pop	{r3, r4, r5, r6, r7, r8, r9, pc}
.LVL71:
.L8:
	.loc 1 192 3 is_stmt 1 view .LVU255
	.loc 1 192 45 is_stmt 0 view .LVU256
	ldrh	r0, [r5]
	.loc 1 192 25 view .LVU257
	mul	r0, r8, r0
	bl	malloc
.LVL72:
	.loc 1 193 38 view .LVU258
	ldrh	r2, [r5]
	.loc 1 192 14 view .LVU259
	str	r0, [r4, #240]
	.loc 1 193 3 is_stmt 1 view .LVU260
	mov	r1, r9
	mul	r2, r8, r2
	bl	memset
.LVL73:
	.loc 1 194 3 view .LVU261
	ldr	r3, [r4, #240]
	ldrb	r1, [r4, #13]	@ zero_extendqisi2
	movs	r2, #1
	add	r0, r4, #64
	bl	arm_mat_init_f32
.LVL74:
	b	.L3
.L9:
	.loc 1 227 3 view .LVU262
	.loc 1 227 45 is_stmt 0 view .LVU263
	ldrh	r0, [r5]
	.loc 1 227 56 view .LVU264
	mul	r0, r8, r0
	.loc 1 227 25 view .LVU265
	mul	r0, r7, r0
	bl	malloc
.LVL75:
	.loc 1 228 38 view .LVU266
	ldrh	r2, [r5]
	.loc 1 227 14 view .LVU267
	str	r0, [r4, #264]
	.loc 1 228 3 is_stmt 1 view .LVU268
	.loc 1 228 49 is_stmt 0 view .LVU269
	mul	r2, r8, r2
	.loc 1 228 3 view .LVU270
	mul	r2, r7, r2
	movs	r1, #0
	bl	memset
.LVL76:
	.loc 1 229 3 is_stmt 1 view .LVU271
	ldr	r3, [r4, #264]
	ldrb	r2, [r4, #13]	@ zero_extendqisi2
	ldrb	r1, [r4, #12]	@ zero_extendqisi2
	add	r0, r4, #112
	bl	arm_mat_init_f32
.LVL77:
	b	.L5
	.cfi_endproc
.LFE695:
	.size	Kalman_Filter_Init, .-Kalman_Filter_Init
	.section	.text.Kalman_Filter_Measure,"ax",%progbits
	.align	1
	.p2align 2,,3
	.global	Kalman_Filter_Measure
	.syntax unified
	.thumb
	.thumb_func
	.type	Kalman_Filter_Measure, %function
Kalman_Filter_Measure:
.LVL78:
.LFB696:
	.loc 1 298 1 view -0
	.cfi_startproc
	@ args = 0, pretend = 0, frame = 0
	@ frame_needed = 0, uses_anonymous_args = 0
	.loc 1 301 2 view .LVU273
	.loc 1 298 1 is_stmt 0 view .LVU274
	push	{r3, r4, r5, r6, r7, lr}
	.cfi_def_cfa_offset 24
	.cfi_offset 3, -24
	.cfi_offset 4, -20
	.cfi_offset 5, -16
	.cfi_offset 6, -12
	.cfi_offset 7, -8
	.cfi_offset 14, -4
.LBB42:
.LBB43:
	.loc 1 488 54 view .LVU275
	ldr	r5, .L28
	.loc 1 488 58 view .LVU276
	ldrb	r3, [r0, #14]	@ zero_extendqisi2
	.loc 1 488 54 view .LVU277
	ldrh	r2, [r5]
.LBE43:
.LBE42:
	.loc 1 301 5 view .LVU278
	ldrb	r6, [r0, #15]	@ zero_extendqisi2
	.loc 1 298 1 view .LVU279
	mov	r4, r0
.LBB53:
.LBB50:
	.loc 1 488 54 view .LVU280
	mul	r2, r3, r2
	.loc 1 488 11 view .LVU281
	ldr	r0, [r0, #244]
.LVL79:
	.loc 1 488 23 view .LVU282
	ldr	r1, [r4, #4]
.LBE50:
.LBE53:
	.loc 1 301 5 view .LVU283
	cmp	r6, #0
	beq	.L14
	.loc 1 302 3 is_stmt 1 view .LVU284
.LVL80:
.LBB54:
.LBI42:
	.loc 1 484 13 view .LVU285
.LBB51:
	.loc 1 486 2 view .LVU286
	.loc 1 486 26 is_stmt 0 view .LVU287
	movs	r7, #0
	strb	r7, [r4, #16]
	.loc 1 488 2 is_stmt 1 view .LVU288
	bl	memcpy
.LVL81:
	.loc 1 489 2 view .LVU289
	.loc 1 489 45 is_stmt 0 view .LVU290
	ldrh	r3, [r5]
	.loc 1 489 49 view .LVU291
	ldrb	r2, [r4, #14]	@ zero_extendqisi2
	.loc 1 489 2 view .LVU292
	ldr	r0, [r4, #4]
	mul	r2, r3, r2
	mov	r1, r7
	bl	memset
.LVL82:
	.loc 1 493 2 is_stmt 1 view .LVU293
	.loc 1 493 41 is_stmt 0 view .LVU294
	ldrb	r3, [r4, #14]	@ zero_extendqisi2
	.loc 1 493 37 view .LVU295
	ldrh	r2, [r5]
	.loc 1 493 2 view .LVU296
	ldr	r0, [r4, #280]
	.loc 1 493 49 view .LVU297
	smulbb	r3, r3, r3
	.loc 1 493 2 view .LVU298
	mul	r2, r3, r2
	mov	r1, r7
	bl	memset
.LVL83:
	.loc 1 494 2 is_stmt 1 view .LVU299
	.loc 1 494 52 is_stmt 0 view .LVU300
	ldrb	r2, [r4, #14]	@ zero_extendqisi2
	ldrb	r3, [r4, #12]	@ zero_extendqisi2
	.loc 1 494 2 view .LVU301
	ldr	r0, [r4, #268]
	.loc 1 494 52 view .LVU302
	smulbb	r3, r3, r2
	.loc 1 494 37 view .LVU303
	ldrh	r2, [r5]
	.loc 1 494 2 view .LVU304
	mov	r1, r7
	mul	r2, r3, r2
	bl	memset
.LVL84:
	.loc 1 495 2 is_stmt 1 view .LVU305
.LBB44:
	.loc 1 495 7 view .LVU306
	.loc 1 495 24 view .LVU307
	.loc 1 495 28 is_stmt 0 view .LVU308
	ldrb	r6, [r4, #14]	@ zero_extendqisi2
	.loc 1 495 24 view .LVU309
	cmp	r6, #0
	beq	.L15
.LBE44:
.LBB45:
	.loc 1 508 28 view .LVU310
	ldrb	r3, [r4, #16]	@ zero_extendqisi2
	ldr	r0, [r4, #244]
	mov	r1, r7
	mov	r2, r7
.LBE45:
.LBB46:
	.loc 1 503 14 view .LVU311
	mvn	ip, #-1073741824
.LVL85:
.L19:
	.loc 1 496 3 is_stmt 1 view .LVU312
	.loc 1 499 4 view .LVU313
	.loc 1 495 37 view .LVU314
	.loc 1 495 24 view .LVU315
	.loc 1 496 17 is_stmt 0 view .LVU316
	add	lr, r0, r2, lsl #2
	vldr.32	s15, [lr]
	.loc 1 496 6 view .LVU317
	vcmp.f32	s15, #0
	vmrs	APSR_nzcv, FPSCR
	.loc 1 499 40 view .LVU318
	add	r7, r0, r3, lsl #2
	.loc 1 496 17 view .LVU319
	lsl	lr, r2, #2
	.loc 1 496 6 view .LVU320
	beq	.L16
	.loc 1 499 40 view .LVU321
	vstr.32	s15, [r7]
	.loc 1 500 4 is_stmt 1 view .LVU322
	.loc 1 500 15 is_stmt 0 view .LVU323
	ldrb	r3, [r4, #16]	@ zero_extendqisi2
	.loc 1 500 38 view .LVU324
	ldr	r0, [r4, #36]
	strb	r1, [r0, r3]
	.loc 1 503 4 is_stmt 1 view .LVU325
	.loc 1 503 74 is_stmt 0 view .LVU326
	ldr	r3, [r4, #20]
	.loc 1 503 28 view .LVU327
	ldrb	r6, [r4, #16]	@ zero_extendqisi2
	.loc 1 503 74 view .LVU328
	ldrb	r3, [r3, r2]	@ zero_extendqisi2
	.loc 1 503 28 view .LVU329
	ldrb	r7, [r4, #12]	@ zero_extendqisi2
	.loc 1 504 34 view .LVU330
	ldr	r0, [r4, #24]
	.loc 1 504 11 view .LVU331
	ldr	r2, [r4, #268]
	.loc 1 503 14 view .LVU332
	mla	r3, r7, r6, r3
	add	r3, r3, ip
	.loc 1 504 34 view .LVU333
	add	r0, r0, lr
	.loc 1 504 11 view .LVU334
	add	r2, r2, r3, lsl #2
	.loc 1 504 34 view .LVU335
	ldr	r0, [r0]	@ float
	.loc 1 504 11 view .LVU336
	str	r0, [r2]	@ float
	.loc 1 505 4 is_stmt 1 view .LVU337
	.loc 1 505 27 is_stmt 0 view .LVU338
	ldrb	r3, [r4, #16]	@ zero_extendqisi2
	.loc 1 495 28 view .LVU339
	ldrb	r6, [r4, #14]	@ zero_extendqisi2
	.loc 1 495 37 is_stmt 1 view .LVU340
.LVL86:
	.loc 1 495 24 view .LVU341
	adds	r1, r1, #1
	.loc 1 505 27 is_stmt 0 view .LVU342
	adds	r3, r3, #1
	.loc 1 495 24 view .LVU343
	uxtb	r2, r1
	.loc 1 505 27 view .LVU344
	uxtb	r3, r3
	.loc 1 495 24 view .LVU345
	cmp	r2, r6
	.loc 1 505 27 view .LVU346
	strb	r3, [r4, #16]
	.loc 1 495 24 view .LVU347
	bcs	.L18
	ldr	r0, [r4, #244]
	b	.L19
.LVL87:
.L14:
	.loc 1 495 24 view .LVU348
.LBE46:
.LBE51:
.LBE54:
	.loc 1 304 3 is_stmt 1 view .LVU349
	bl	memcpy
.LVL88:
	.loc 1 305 3 view .LVU350
	.loc 1 305 46 is_stmt 0 view .LVU351
	ldrh	r3, [r5]
	.loc 1 305 50 view .LVU352
	ldrb	r2, [r4, #14]	@ zero_extendqisi2
	.loc 1 305 3 view .LVU353
	ldr	r0, [r4, #4]
	mov	r1, r6
	mul	r2, r3, r2
	bl	memset
.LVL89:
.L22:
	.loc 1 308 2 is_stmt 1 view .LVU354
	.loc 1 308 53 is_stmt 0 view .LVU355
	ldrh	r3, [r5]
	.loc 1 308 57 view .LVU356
	ldrb	r2, [r4, #13]	@ zero_extendqisi2
	.loc 1 308 2 view .LVU357
	ldr	r1, [r4, #8]
	ldr	r0, [r4, #240]
	mul	r2, r3, r2
	.loc 1 309 1 view .LVU358
	pop	{r3, r4, r5, r6, r7, lr}
	.cfi_remember_state
	.cfi_restore 14
	.cfi_restore 7
	.cfi_restore 6
	.cfi_restore 5
	.cfi_restore 4
	.cfi_restore 3
	.cfi_def_cfa_offset 0
.LVL90:
	.loc 1 308 2 view .LVU359
	b	memcpy
.LVL91:
.L16:
	.cfi_restore_state
.LBB55:
.LBB52:
.LBB47:
	.loc 1 495 24 view .LVU360
	adds	r1, r1, #1
.LVL92:
	.loc 1 495 24 view .LVU361
	uxtb	r2, r1
	cmp	r2, r6
	bcc	.L19
.LVL93:
.L18:
	.loc 1 495 24 view .LVU362
.LBE47:
.LBB48:
	.loc 1 508 24 is_stmt 1 view .LVU363
	cbz	r3, .L20
	mov	ip, #0
	mov	r2, ip
.LVL94:
.L21:
	.loc 1 511 3 view .LVU364
	.loc 1 512 38 is_stmt 0 view .LVU365
	ldr	r1, [r4, #36]
	.loc 1 512 29 view .LVU366
	ldr	r0, [r4, #28]
	ldrb	lr, [r1, r2]	@ zero_extendqisi2
	.loc 1 511 47 view .LVU367
	ldr	r1, [r4, #280]
	.loc 1 511 42 view .LVU368
	mla	r2, r3, r2, r2
	.loc 1 512 29 view .LVU369
	add	r0, r0, lr, lsl #2
	.loc 1 511 47 view .LVU370
	add	r1, r1, r2, lsl #2
	.loc 1 512 29 view .LVU371
	ldr	r3, [r0]	@ float
	.loc 1 511 47 view .LVU372
	str	r3, [r1]	@ float
	.loc 1 508 51 is_stmt 1 view .LVU373
.LVL95:
	.loc 1 508 24 view .LVU374
	.loc 1 508 28 is_stmt 0 view .LVU375
	ldrb	r3, [r4, #16]	@ zero_extendqisi2
	.loc 1 508 24 view .LVU376
	add	ip, ip, #1
.LVL96:
	.loc 1 508 24 view .LVU377
	uxtb	r2, ip
	cmp	r3, r2
	bhi	.L21
.LVL97:
.L20:
	.loc 1 508 24 view .LVU378
.LBE48:
	.loc 1 517 2 is_stmt 1 view .LVU379
	.loc 1 521 16 is_stmt 0 view .LVU380
	movs	r1, #0
	bfi	r1, r3, #0, #16
	.loc 1 518 20 view .LVU381
	ldrb	r2, [r4, #12]	@ zero_extendqisi2
	.loc 1 517 16 view .LVU382
	strh	r3, [r4, #120]	@ movhi
	.loc 1 518 2 is_stmt 1 view .LVU383
	.loc 1 521 16 is_stmt 0 view .LVU384
	bfi	r1, r3, #16, #16
	.loc 1 518 16 view .LVU385
	strh	r2, [r4, #122]	@ movhi
	.loc 1 519 2 is_stmt 1 view .LVU386
	.loc 1 519 17 is_stmt 0 view .LVU387
	strh	r2, [r4, #128]	@ movhi
	.loc 1 520 2 is_stmt 1 view .LVU388
	.loc 1 520 17 is_stmt 0 view .LVU389
	strh	r3, [r4, #130]	@ movhi
	.loc 1 521 2 is_stmt 1 view .LVU390
	.loc 1 522 2 view .LVU391
	.loc 1 521 16 is_stmt 0 view .LVU392
	str	r1, [r4, #144]
	.loc 1 523 2 is_stmt 1 view .LVU393
	.loc 1 523 16 is_stmt 0 view .LVU394
	strh	r2, [r4, #152]	@ movhi
	.loc 1 524 2 is_stmt 1 view .LVU395
	.loc 1 524 16 is_stmt 0 view .LVU396
	strh	r3, [r4, #154]	@ movhi
	.loc 1 525 2 is_stmt 1 view .LVU397
	.loc 1 525 16 is_stmt 0 view .LVU398
	strh	r3, [r4, #72]	@ movhi
	.loc 1 526 1 view .LVU399
	b	.L22
.LVL98:
.L15:
.LBB49:
	.loc 1 508 28 view .LVU400
	ldrb	r3, [r4, #16]	@ zero_extendqisi2
	b	.L18
.L29:
	.align	2
.L28:
	.word	sizeof_float
.LBE49:
.LBE52:
.LBE55:
	.cfi_endproc
.LFE696:
	.size	Kalman_Filter_Measure, .-Kalman_Filter_Measure
	.section	.text.Kalman_Filter_xhatMinusUpdate,"ax",%progbits
	.align	1
	.p2align 2,,3
	.global	Kalman_Filter_xhatMinusUpdate
	.syntax unified
	.thumb
	.thumb_func
	.type	Kalman_Filter_xhatMinusUpdate, %function
Kalman_Filter_xhatMinusUpdate:
.LVL99:
.LFB697:
	.loc 1 312 1 is_stmt 1 view -0
	.cfi_startproc
	@ args = 0, pretend = 0, frame = 0
	@ frame_needed = 0, uses_anonymous_args = 0
	.loc 1 313 2 view .LVU402
	.loc 1 313 5 is_stmt 0 view .LVU403
	ldrb	r3, [r0, #40]	@ zero_extendqisi2
	cbnz	r3, .L34
	.loc 1 314 3 is_stmt 1 view .LVU404
	.loc 1 312 1 is_stmt 0 view .LVU405
	push	{r4, r5, r6, r7, r8, lr}
	.cfi_def_cfa_offset 24
	.cfi_offset 4, -24
	.cfi_offset 5, -20
	.cfi_offset 6, -16
	.cfi_offset 7, -12
	.cfi_offset 8, -8
	.cfi_offset 14, -4
	.loc 1 314 6 view .LVU406
	ldrb	r3, [r0, #13]	@ zero_extendqisi2
	mov	r4, r0
.LBB58:
.LBB59:
	.loc 1 317 45 view .LVU407
	add	r1, r4, #48
	.loc 1 317 37 view .LVU408
	adds	r0, r0, #96
.LVL100:
	.loc 1 322 5 view .LVU409
	add	r5, r4, #56
.LBE59:
.LBE58:
	.loc 1 314 6 view .LVU410
	cbnz	r3, .L37
	.loc 1 324 4 is_stmt 1 view .LVU411
	.loc 1 324 20 is_stmt 0 view .LVU412
	mov	r2, r5
	bl	arm_mat_mult_f32
.LVL101:
	.loc 1 324 18 view .LVU413
	strb	r0, [r4, #200]
	.loc 1 327 1 view .LVU414
	pop	{r4, r5, r6, r7, r8, pc}
.LVL102:
.L34:
	.cfi_def_cfa_offset 0
	.cfi_restore 4
	.cfi_restore 5
	.cfi_restore 6
	.cfi_restore 7
	.cfi_restore 8
	.cfi_restore 14
	.loc 1 327 1 view .LVU415
	bx	lr
.LVL103:
.L37:
	.cfi_def_cfa_offset 24
	.cfi_offset 4, -24
	.cfi_offset 5, -20
	.cfi_offset 6, -16
	.cfi_offset 7, -12
	.cfi_offset 8, -8
	.cfi_offset 14, -4
.LBB61:
.LBI58:
	.loc 1 311 6 is_stmt 1 view .LVU416
.LBB60:
	.loc 1 315 4 view .LVU417
	.loc 1 315 32 is_stmt 0 view .LVU418
	ldrb	r3, [r4, #12]	@ zero_extendqisi2
	strh	r3, [r4, #184]	@ movhi
	.loc 1 316 4 is_stmt 1 view .LVU419
	.loc 1 316 28 is_stmt 0 view .LVU420
	mov	r8, #1
	.loc 1 317 20 view .LVU421
	add	r6, r4, #184
	mov	r2, r6
	.loc 1 316 28 view .LVU422
	strh	r8, [r4, #186]	@ movhi
	.loc 1 317 4 is_stmt 1 view .LVU423
	.loc 1 317 20 is_stmt 0 view .LVU424
	bl	arm_mat_mult_f32
.LVL104:
	.loc 1 320 20 view .LVU425
	add	r7, r4, #192
	.loc 1 318 33 view .LVU426
	ldrb	r3, [r4, #12]	@ zero_extendqisi2
	.loc 1 317 18 view .LVU427
	strb	r0, [r4, #200]
	.loc 1 318 4 is_stmt 1 view .LVU428
	.loc 1 318 33 is_stmt 0 view .LVU429
	strh	r3, [r4, #192]	@ movhi
	.loc 1 319 4 is_stmt 1 view .LVU430
	.loc 1 320 20 is_stmt 0 view .LVU431
	mov	r2, r7
	add	r1, r4, #64
	.loc 1 319 29 view .LVU432
	strh	r8, [r4, #194]	@ movhi
	.loc 1 320 4 is_stmt 1 view .LVU433
	.loc 1 320 20 is_stmt 0 view .LVU434
	add	r0, r4, #112
	bl	arm_mat_mult_f32
.LVL105:
	.loc 1 322 5 view .LVU435
	mov	r2, r5
	.loc 1 320 18 view .LVU436
	strb	r0, [r4, #200]
	.loc 1 321 4 is_stmt 1 view .LVU437
	.loc 1 322 5 is_stmt 0 view .LVU438
	mov	r1, r7
	mov	r0, r6
	bl	arm_mat_add_f32
.LVL106:
	.loc 1 321 18 view .LVU439
	strb	r0, [r4, #200]
.LBE60:
.LBE61:
	.loc 1 327 1 view .LVU440
	pop	{r4, r5, r6, r7, r8, pc}
	.loc 1 327 1 view .LVU441
	.cfi_endproc
.LFE697:
	.size	Kalman_Filter_xhatMinusUpdate, .-Kalman_Filter_xhatMinusUpdate
	.section	.text.Kalman_Filter_PminusUpdate,"ax",%progbits
	.align	1
	.p2align 2,,3
	.global	Kalman_Filter_PminusUpdate
	.syntax unified
	.thumb
	.thumb_func
	.type	Kalman_Filter_PminusUpdate, %function
Kalman_Filter_PminusUpdate:
.LVL107:
.LFB698:
	.loc 1 330 1 is_stmt 1 view -0
	.cfi_startproc
	@ args = 0, pretend = 0, frame = 0
	@ frame_needed = 0, uses_anonymous_args = 0
	.loc 1 331 2 view .LVU443
	.loc 1 330 1 is_stmt 0 view .LVU444
	push	{r3, r4, r5, r6, r7, lr}
	.cfi_def_cfa_offset 24
	.cfi_offset 3, -24
	.cfi_offset 4, -20
	.cfi_offset 5, -16
	.cfi_offset 6, -12
	.cfi_offset 7, -8
	.cfi_offset 14, -4
	.loc 1 331 5 view .LVU445
	ldrb	r3, [r0, #41]	@ zero_extendqisi2
	cbz	r3, .L41
	.loc 1 340 1 view .LVU446
	pop	{r3, r4, r5, r6, r7, pc}
.L41:
.LVL108:
.LBB64:
.LBI64:
	.loc 1 329 6 is_stmt 1 view .LVU447
.LBB65:
	.loc 1 332 3 view .LVU448
	.loc 1 332 19 is_stmt 0 view .LVU449
	add	r6, r0, #104
	.loc 1 332 37 view .LVU450
	add	r7, r0, #96
	mov	r4, r0
	.loc 1 332 19 view .LVU451
	mov	r1, r6
	mov	r0, r7
.LVL109:
	.loc 1 332 19 view .LVU452
	bl	arm_mat_trans_f32
.LVL110:
	.loc 1 333 19 view .LVU453
	add	r5, r4, #88
	.loc 1 332 17 view .LVU454
	strb	r0, [r4, #200]
	.loc 1 333 3 is_stmt 1 view .LVU455
	.loc 1 333 19 is_stmt 0 view .LVU456
	mov	r2, r5
	add	r1, r4, #80
	mov	r0, r7
	bl	arm_mat_mult_f32
.LVL111:
	.loc 1 334 27 view .LVU457
	ldrh	r3, [r4, #88]
	strh	r3, [r4, #168]	@ movhi
	.loc 1 336 19 view .LVU458
	mov	r1, r6
	.loc 1 335 27 view .LVU459
	ldrh	r3, [r4, #106]
	.loc 1 333 17 view .LVU460
	strb	r0, [r4, #200]
	.loc 1 334 3 is_stmt 1 view .LVU461
	.loc 1 335 3 view .LVU462
	.loc 1 336 19 is_stmt 0 view .LVU463
	add	r6, r4, #168
	.loc 1 335 27 view .LVU464
	strh	r3, [r4, #170]	@ movhi
	.loc 1 336 3 is_stmt 1 view .LVU465
	.loc 1 336 19 is_stmt 0 view .LVU466
	mov	r2, r6
	mov	r0, r5
	bl	arm_mat_mult_f32
.LVL112:
	.loc 1 338 19 view .LVU467
	mov	r2, r5
	.loc 1 336 17 view .LVU468
	strb	r0, [r4, #200]
	.loc 1 338 3 is_stmt 1 view .LVU469
	.loc 1 338 19 is_stmt 0 view .LVU470
	add	r1, r4, #136
	mov	r0, r6
	bl	arm_mat_add_f32
.LVL113:
	.loc 1 338 17 view .LVU471
	strb	r0, [r4, #200]
.LVL114:
	.loc 1 338 17 view .LVU472
.LBE65:
.LBE64:
	.loc 1 340 1 view .LVU473
	pop	{r3, r4, r5, r6, r7, pc}
	.loc 1 340 1 view .LVU474
	.cfi_endproc
.LFE698:
	.size	Kalman_Filter_PminusUpdate, .-Kalman_Filter_PminusUpdate
	.section	.text.Kalman_Filter_SetK,"ax",%progbits
	.align	1
	.p2align 2,,3
	.global	Kalman_Filter_SetK
	.syntax unified
	.thumb
	.thumb_func
	.type	Kalman_Filter_SetK, %function
Kalman_Filter_SetK:
.LVL115:
.LFB699:
	.loc 1 342 1 is_stmt 1 view -0
	.cfi_startproc
	@ args = 0, pretend = 0, frame = 0
	@ frame_needed = 0, uses_anonymous_args = 0
	.loc 1 343 2 view .LVU476
	.loc 1 342 1 is_stmt 0 view .LVU477
	push	{r3, r4, r5, r6, r7, r8, r9, lr}
	.cfi_def_cfa_offset 32
	.cfi_offset 3, -32
	.cfi_offset 4, -28
	.cfi_offset 5, -24
	.cfi_offset 6, -20
	.cfi_offset 7, -16
	.cfi_offset 8, -12
	.cfi_offset 9, -8
	.cfi_offset 14, -4
	.loc 1 343 5 view .LVU478
	ldrb	r3, [r0, #42]	@ zero_extendqisi2
	cbz	r3, .L45
	.loc 1 364 1 view .LVU479
	pop	{r3, r4, r5, r6, r7, r8, r9, pc}
.L45:
.LVL116:
.LBB68:
.LBI68:
	.loc 1 341 6 is_stmt 1 view .LVU480
.LBB69:
	.loc 1 344 3 view .LVU481
	.loc 1 344 19 is_stmt 0 view .LVU482
	add	r7, r0, #128
	.loc 1 344 37 view .LVU483
	add	r6, r0, #120
	mov	r4, r0
	.loc 1 344 19 view .LVU484
	mov	r1, r7
	mov	r0, r6
.LVL117:
	.loc 1 344 19 view .LVU485
	bl	arm_mat_trans_f32
.LVL118:
	.loc 1 345 27 view .LVU486
	ldrh	r3, [r4, #120]
	strh	r3, [r4, #168]	@ movhi
	.loc 1 347 19 view .LVU487
	add	r5, r4, #168
	.loc 1 346 27 view .LVU488
	ldrh	r3, [r4, #90]
	.loc 1 344 17 view .LVU489
	strb	r0, [r4, #200]
	.loc 1 345 3 is_stmt 1 view .LVU490
	.loc 1 346 3 view .LVU491
	.loc 1 347 44 is_stmt 0 view .LVU492
	add	r8, r4, #88
	.loc 1 347 19 view .LVU493
	mov	r0, r6
	.loc 1 346 27 view .LVU494
	strh	r3, [r4, #170]	@ movhi
	.loc 1 347 3 is_stmt 1 view .LVU495
	.loc 1 347 19 is_stmt 0 view .LVU496
	mov	r2, r5
	mov	r1, r8
	bl	arm_mat_mult_f32
.LVL119:
	.loc 1 349 28 view .LVU497
	ldrh	r3, [r4, #168]
	strh	r3, [r4, #176]	@ movhi
	.loc 1 351 19 view .LVU498
	add	r6, r4, #176
	.loc 1 350 28 view .LVU499
	ldrh	r3, [r4, #130]
	.loc 1 347 17 view .LVU500
	strb	r0, [r4, #200]
	.loc 1 349 3 is_stmt 1 view .LVU501
	.loc 1 350 3 view .LVU502
	.loc 1 350 28 is_stmt 0 view .LVU503
	strh	r3, [r4, #178]	@ movhi
	.loc 1 351 3 is_stmt 1 view .LVU504
	.loc 1 351 19 is_stmt 0 view .LVU505
	mov	r2, r6
	mov	r1, r7
	mov	r0, r5
	bl	arm_mat_mult_f32
.LVL120:
	add	r9, r4, #160
	.loc 1 353 17 view .LVU506
	ldr	r3, [r4, #144]
	str	r3, [r4, #160]
	.loc 1 355 19 view .LVU507
	mov	r2, r9
	.loc 1 351 17 view .LVU508
	strb	r0, [r4, #200]
	.loc 1 353 3 is_stmt 1 view .LVU509
	.loc 1 354 3 view .LVU510
	.loc 1 355 3 view .LVU511
	.loc 1 355 19 is_stmt 0 view .LVU512
	add	r1, r4, #144
	mov	r0, r6
	bl	arm_mat_add_f32
.LVL121:
	.loc 1 356 19 view .LVU513
	mov	r1, r6
	.loc 1 355 17 view .LVU514
	strb	r0, [r4, #200]
	.loc 1 356 3 is_stmt 1 view .LVU515
	.loc 1 356 19 is_stmt 0 view .LVU516
	mov	r0, r9
	bl	arm_mat_inverse_f32
.LVL122:
	.loc 1 358 27 view .LVU517
	ldrh	r3, [r4, #88]
	strh	r3, [r4, #168]	@ movhi
	.loc 1 359 27 view .LVU518
	ldrh	r3, [r4, #130]
	.loc 1 356 17 view .LVU519
	strb	r0, [r4, #200]
	.loc 1 358 3 is_stmt 1 view .LVU520
	.loc 1 359 3 view .LVU521
	.loc 1 360 19 is_stmt 0 view .LVU522
	mov	r1, r7
	.loc 1 359 27 view .LVU523
	strh	r3, [r4, #170]	@ movhi
	.loc 1 360 3 is_stmt 1 view .LVU524
	.loc 1 360 19 is_stmt 0 view .LVU525
	mov	r2, r5
	mov	r0, r8
	bl	arm_mat_mult_f32
.LVL123:
	.loc 1 362 19 view .LVU526
	add	r2, r4, #152
	.loc 1 360 17 view .LVU527
	strb	r0, [r4, #200]
	.loc 1 362 3 is_stmt 1 view .LVU528
	.loc 1 362 19 is_stmt 0 view .LVU529
	mov	r1, r6
	mov	r0, r5
	bl	arm_mat_mult_f32
.LVL124:
	.loc 1 362 17 view .LVU530
	strb	r0, [r4, #200]
.LVL125:
	.loc 1 362 17 view .LVU531
.LBE69:
.LBE68:
	.loc 1 364 1 view .LVU532
	pop	{r3, r4, r5, r6, r7, r8, r9, pc}
	.loc 1 364 1 view .LVU533
	.cfi_endproc
.LFE699:
	.size	Kalman_Filter_SetK, .-Kalman_Filter_SetK
	.section	.text.Kalman_Filter_xhatUpdate,"ax",%progbits
	.align	1
	.p2align 2,,3
	.global	Kalman_Filter_xhatUpdate
	.syntax unified
	.thumb
	.thumb_func
	.type	Kalman_Filter_xhatUpdate, %function
Kalman_Filter_xhatUpdate:
.LVL126:
.LFB700:
	.loc 1 366 1 is_stmt 1 view -0
	.cfi_startproc
	@ args = 0, pretend = 0, frame = 0
	@ frame_needed = 0, uses_anonymous_args = 0
	.loc 1 367 2 view .LVU535
	.loc 1 367 5 is_stmt 0 view .LVU536
	ldrb	r3, [r0, #43]	@ zero_extendqisi2
	cbz	r3, .L52
	bx	lr
.L52:
.LVL127:
.LBB72:
.LBI72:
	.loc 1 365 6 is_stmt 1 view .LVU537
.LBB73:
	.loc 1 368 3 view .LVU538
.LBE73:
.LBE72:
	.loc 1 366 1 is_stmt 0 view .LVU539
	push	{r4, r5, r6, r7, r8, lr}
	.cfi_def_cfa_offset 24
	.cfi_offset 4, -24
	.cfi_offset 5, -20
	.cfi_offset 6, -16
	.cfi_offset 7, -12
	.cfi_offset 8, -8
	.cfi_offset 14, -4
.LBB75:
.LBB74:
	.loc 1 370 19 view .LVU540
	add	r5, r0, #184
	.loc 1 368 27 view .LVU541
	ldrh	r3, [r0, #120]
	strh	r3, [r0, #184]	@ movhi
	.loc 1 369 3 is_stmt 1 view .LVU542
	.loc 1 369 27 is_stmt 0 view .LVU543
	movs	r6, #1
	.loc 1 370 44 view .LVU544
	add	r7, r0, #56
	mov	r4, r0
	.loc 1 369 27 view .LVU545
	strh	r6, [r0, #186]	@ movhi
	.loc 1 370 3 is_stmt 1 view .LVU546
	.loc 1 370 19 is_stmt 0 view .LVU547
	mov	r2, r5
	mov	r1, r7
	adds	r0, r0, #120
.LVL128:
	.loc 1 370 19 view .LVU548
	bl	arm_mat_mult_f32
.LVL129:
	.loc 1 375 4 view .LVU549
	add	r8, r4, #192
	.loc 1 372 28 view .LVU550
	ldrh	r3, [r4, #72]
	.loc 1 370 17 view .LVU551
	strb	r0, [r4, #200]
	.loc 1 372 3 is_stmt 1 view .LVU552
	.loc 1 372 28 is_stmt 0 view .LVU553
	strh	r3, [r4, #192]	@ movhi
	.loc 1 373 3 is_stmt 1 view .LVU554
	.loc 1 375 4 is_stmt 0 view .LVU555
	mov	r2, r8
	mov	r1, r5
	.loc 1 373 28 view .LVU556
	strh	r6, [r4, #194]	@ movhi
	.loc 1 374 3 is_stmt 1 view .LVU557
	.loc 1 375 4 is_stmt 0 view .LVU558
	add	r0, r4, #72
	bl	arm_mat_sub_f32
.LVL130:
	.loc 1 377 27 view .LVU559
	ldrh	r3, [r4, #152]
	.loc 1 374 17 view .LVU560
	strb	r0, [r4, #200]
	.loc 1 377 3 is_stmt 1 view .LVU561
	.loc 1 380 4 is_stmt 0 view .LVU562
	mov	r2, r5
	mov	r1, r8
	.loc 1 377 27 view .LVU563
	strh	r3, [r4, #184]	@ movhi
	.loc 1 378 3 is_stmt 1 view .LVU564
	.loc 1 379 3 view .LVU565
	.loc 1 378 27 is_stmt 0 view .LVU566
	strh	r6, [r4, #186]	@ movhi
	.loc 1 380 4 view .LVU567
	add	r0, r4, #152
	bl	arm_mat_mult_f32
.LVL131:
	.loc 1 382 19 view .LVU568
	add	r2, r4, #48
	.loc 1 379 17 view .LVU569
	strb	r0, [r4, #200]
	.loc 1 382 3 is_stmt 1 view .LVU570
	.loc 1 382 19 is_stmt 0 view .LVU571
	mov	r1, r5
	mov	r0, r7
	bl	arm_mat_add_f32
.LVL132:
	.loc 1 382 17 view .LVU572
	strb	r0, [r4, #200]
.LVL133:
	.loc 1 382 17 view .LVU573
.LBE74:
.LBE75:
	.loc 1 384 1 view .LVU574
	pop	{r4, r5, r6, r7, r8, pc}
	.loc 1 384 1 view .LVU575
	.cfi_endproc
.LFE700:
	.size	Kalman_Filter_xhatUpdate, .-Kalman_Filter_xhatUpdate
	.section	.text.Kalman_Filter_P_Update,"ax",%progbits
	.align	1
	.p2align 2,,3
	.global	Kalman_Filter_P_Update
	.syntax unified
	.thumb
	.thumb_func
	.type	Kalman_Filter_P_Update, %function
Kalman_Filter_P_Update:
.LVL134:
.LFB701:
	.loc 1 386 1 is_stmt 1 view -0
	.cfi_startproc
	@ args = 0, pretend = 0, frame = 0
	@ frame_needed = 0, uses_anonymous_args = 0
	.loc 1 387 2 view .LVU577
	.loc 1 386 1 is_stmt 0 view .LVU578
	push	{r3, r4, r5, r6, r7, lr}
	.cfi_def_cfa_offset 24
	.cfi_offset 3, -24
	.cfi_offset 4, -20
	.cfi_offset 5, -16
	.cfi_offset 6, -12
	.cfi_offset 7, -8
	.cfi_offset 14, -4
	.loc 1 387 5 view .LVU579
	ldrb	r3, [r0, #44]	@ zero_extendqisi2
	cbz	r3, .L56
	.loc 1 398 1 view .LVU580
	pop	{r3, r4, r5, r6, r7, pc}
.L56:
.LVL135:
.LBB78:
.LBI78:
	.loc 1 385 6 is_stmt 1 view .LVU581
.LBB79:
	.loc 1 388 3 view .LVU582
	mov	r4, r0
	.loc 1 388 34 is_stmt 0 view .LVU583
	ldrh	r3, [r0, #152]
	.loc 1 389 27 view .LVU584
	ldrh	r2, [r0, #122]
	.loc 1 391 28 view .LVU585
	ldrh	r0, [r0, #90]
.LVL136:
	.loc 1 391 28 view .LVU586
	strh	r0, [r4, #178]	@ movhi
	.loc 1 393 4 view .LVU587
	add	r7, r4, #168
	.loc 1 388 27 view .LVU588
	strh	r3, [r4, #168]	@ movhi
	.loc 1 389 3 is_stmt 1 view .LVU589
	.loc 1 390 28 is_stmt 0 view .LVU590
	strh	r3, [r4, #176]	@ movhi
	.loc 1 389 27 view .LVU591
	strh	r2, [r4, #170]	@ movhi
	.loc 1 390 3 is_stmt 1 view .LVU592
	.loc 1 391 3 view .LVU593
	.loc 1 392 3 view .LVU594
	.loc 1 393 4 is_stmt 0 view .LVU595
	add	r1, r4, #120
	mov	r2, r7
	add	r0, r4, #152
	bl	arm_mat_mult_f32
.LVL137:
	.loc 1 394 54 view .LVU596
	add	r5, r4, #88
	.loc 1 394 19 view .LVU597
	add	r6, r4, #176
	.loc 1 392 17 view .LVU598
	strb	r0, [r4, #200]
	.loc 1 394 3 is_stmt 1 view .LVU599
	.loc 1 394 19 is_stmt 0 view .LVU600
	mov	r2, r6
	mov	r1, r5
	mov	r0, r7
	bl	arm_mat_mult_f32
.LVL138:
	.loc 1 396 19 view .LVU601
	add	r2, r4, #80
	.loc 1 394 17 view .LVU602
	strb	r0, [r4, #200]
	.loc 1 396 3 is_stmt 1 view .LVU603
	.loc 1 396 19 is_stmt 0 view .LVU604
	mov	r1, r6
	mov	r0, r5
	bl	arm_mat_sub_f32
.LVL139:
	.loc 1 396 17 view .LVU605
	strb	r0, [r4, #200]
.LVL140:
	.loc 1 396 17 view .LVU606
.LBE79:
.LBE78:
	.loc 1 398 1 view .LVU607
	pop	{r3, r4, r5, r6, r7, pc}
	.loc 1 398 1 view .LVU608
	.cfi_endproc
.LFE701:
	.size	Kalman_Filter_P_Update, .-Kalman_Filter_P_Update
	.section	.text.Kalman_Filter_Update,"ax",%progbits
	.align	1
	.p2align 2,,3
	.global	Kalman_Filter_Update
	.syntax unified
	.thumb
	.thumb_func
	.type	Kalman_Filter_Update, %function
Kalman_Filter_Update:
.LVL141:
.LFB702:
	.loc 1 408 1 is_stmt 1 view -0
	.cfi_startproc
	@ args = 0, pretend = 0, frame = 0
	@ frame_needed = 0, uses_anonymous_args = 0
	.loc 1 409 2 view .LVU610
	.loc 1 408 1 is_stmt 0 view .LVU611
	push	{r3, r4, r5, r6, r7, r8, r9, lr}
	.cfi_def_cfa_offset 32
	.cfi_offset 3, -32
	.cfi_offset 4, -28
	.cfi_offset 5, -24
	.cfi_offset 6, -20
	.cfi_offset 7, -16
	.cfi_offset 8, -12
	.cfi_offset 9, -8
	.cfi_offset 14, -4
	.loc 1 408 1 view .LVU612
	mov	r4, r0
.LVL142:
	.loc 1 412 2 is_stmt 1 view .LVU613
	bl	Kalman_Filter_Measure
.LVL143:
	.loc 1 413 2 view .LVU614
	.loc 1 413 8 is_stmt 0 view .LVU615
	ldr	r3, [r4, #204]
	.loc 1 413 5 view .LVU616
	cbz	r3, .L58
	.loc 1 414 3 is_stmt 1 view .LVU617
	mov	r0, r4
	blx	r3
.LVL144:
.L58:
	.loc 1 419 2 view .LVU618
.LBB120:
.LBI120:
	.loc 1 311 6 view .LVU619
.LBB121:
	.loc 1 313 2 view .LVU620
	.loc 1 313 5 is_stmt 0 view .LVU621
	ldrb	r3, [r4, #40]	@ zero_extendqisi2
	cbnz	r3, .L59
	.loc 1 314 3 is_stmt 1 view .LVU622
	.loc 1 314 6 is_stmt 0 view .LVU623
	ldrb	r3, [r4, #13]	@ zero_extendqisi2
.LBB122:
.LBB123:
	.loc 1 317 37 view .LVU624
	add	r0, r4, #96
	.loc 1 317 45 view .LVU625
	add	r1, r4, #48
	.loc 1 322 5 view .LVU626
	add	r6, r4, #56
.LBE123:
.LBE122:
	.loc 1 314 6 view .LVU627
	cmp	r3, #0
	beq	.L60
.LVL145:
.LBB125:
.LBI122:
	.loc 1 311 6 is_stmt 1 view .LVU628
.LBB124:
	.loc 1 315 4 view .LVU629
	.loc 1 315 32 is_stmt 0 view .LVU630
	ldrb	r3, [r4, #12]	@ zero_extendqisi2
	strh	r3, [r4, #184]	@ movhi
	.loc 1 316 4 is_stmt 1 view .LVU631
	.loc 1 316 28 is_stmt 0 view .LVU632
	mov	r8, #1
	.loc 1 317 20 view .LVU633
	add	r7, r4, #184
	mov	r2, r7
	.loc 1 316 28 view .LVU634
	strh	r8, [r4, #186]	@ movhi
	.loc 1 317 4 is_stmt 1 view .LVU635
	.loc 1 317 20 is_stmt 0 view .LVU636
	bl	arm_mat_mult_f32
.LVL146:
	.loc 1 320 20 view .LVU637
	add	r5, r4, #192
	.loc 1 318 33 view .LVU638
	ldrb	r3, [r4, #12]	@ zero_extendqisi2
	.loc 1 317 18 view .LVU639
	strb	r0, [r4, #200]
	.loc 1 318 4 is_stmt 1 view .LVU640
	.loc 1 318 33 is_stmt 0 view .LVU641
	strh	r3, [r4, #192]	@ movhi
	.loc 1 319 4 is_stmt 1 view .LVU642
	.loc 1 320 20 is_stmt 0 view .LVU643
	mov	r2, r5
	add	r1, r4, #64
	.loc 1 319 29 view .LVU644
	strh	r8, [r4, #194]	@ movhi
	.loc 1 320 4 is_stmt 1 view .LVU645
	.loc 1 320 20 is_stmt 0 view .LVU646
	add	r0, r4, #112
	bl	arm_mat_mult_f32
.LVL147:
	.loc 1 322 5 view .LVU647
	mov	r2, r6
	.loc 1 320 18 view .LVU648
	strb	r0, [r4, #200]
	.loc 1 321 4 is_stmt 1 view .LVU649
	.loc 1 322 5 is_stmt 0 view .LVU650
	mov	r1, r5
	mov	r0, r7
	bl	arm_mat_add_f32
.LVL148:
	.loc 1 321 18 view .LVU651
	strb	r0, [r4, #200]
.LVL149:
.L59:
	.loc 1 321 18 view .LVU652
.LBE124:
.LBE125:
.LBE121:
.LBE120:
	.loc 1 420 2 is_stmt 1 view .LVU653
	.loc 1 420 8 is_stmt 0 view .LVU654
	ldr	r3, [r4, #208]
	.loc 1 420 5 view .LVU655
	cbz	r3, .L61
	.loc 1 421 3 is_stmt 1 view .LVU656
	mov	r0, r4
	blx	r3
.LVL150:
.L61:
	.loc 1 426 2 view .LVU657
.LBB127:
.LBI127:
	.loc 1 329 6 view .LVU658
.LBB128:
	.loc 1 331 2 view .LVU659
	.loc 1 331 5 is_stmt 0 view .LVU660
	ldrb	r3, [r4, #41]	@ zero_extendqisi2
	cmp	r3, #0
	beq	.L119
.L62:
.LVL151:
	.loc 1 331 5 view .LVU661
.LBE128:
.LBE127:
	.loc 1 427 2 is_stmt 1 view .LVU662
	.loc 1 427 8 is_stmt 0 view .LVU663
	ldr	r3, [r4, #212]
	.loc 1 427 5 view .LVU664
	cbz	r3, .L63
	.loc 1 428 3 is_stmt 1 view .LVU665
	mov	r0, r4
	blx	r3
.LVL152:
.L63:
	.loc 1 431 2 view .LVU666
	.loc 1 431 5 is_stmt 0 view .LVU667
	ldrb	r3, [r4, #16]	@ zero_extendqisi2
	cmp	r3, #0
	bne	.L64
	.loc 1 431 36 discriminator 2 view .LVU668
	ldrb	r3, [r4, #15]	@ zero_extendqisi2
	cmp	r3, #0
	beq	.L64
.L65:
	.loc 1 458 3 is_stmt 1 view .LVU669
	.loc 1 458 58 is_stmt 0 view .LVU670
	ldr	r5, .L123
	.loc 1 458 62 view .LVU671
	ldrb	r2, [r4, #12]	@ zero_extendqisi2
	.loc 1 458 58 view .LVU672
	ldrh	r3, [r5]
	.loc 1 458 3 view .LVU673
	ldr	r1, [r4, #236]
	ldr	r0, [r4, #232]
	mul	r2, r3, r2
	bl	memcpy
.LVL153:
	.loc 1 459 3 is_stmt 1 view .LVU674
	.loc 1 459 56 is_stmt 0 view .LVU675
	ldrb	r3, [r4, #12]	@ zero_extendqisi2
	.loc 1 459 52 view .LVU676
	ldrh	r2, [r5]
	.loc 1 459 3 view .LVU677
	ldr	r1, [r4, #252]
	ldr	r0, [r4, #248]
	.loc 1 459 67 view .LVU678
	smulbb	r3, r3, r3
	.loc 1 459 3 view .LVU679
	mul	r2, r3, r2
	bl	memcpy
.LVL154:
.L78:
	.loc 1 463 2 is_stmt 1 view .LVU680
	.loc 1 463 8 is_stmt 0 view .LVU681
	ldr	r3, [r4, #224]
	.loc 1 463 5 view .LVU682
	cbz	r3, .L79
	.loc 1 464 3 is_stmt 1 view .LVU683
	mov	r0, r4
	blx	r3
.LVL155:
.L79:
.LBB132:
	.loc 1 469 24 discriminator 1 view .LVU684
	.loc 1 469 28 is_stmt 0 discriminator 1 view .LVU685
	ldrb	r2, [r4, #12]	@ zero_extendqisi2
	.loc 1 469 24 discriminator 1 view .LVU686
	cmp	r2, #0
	beq	.L80
	.loc 1 469 24 view .LVU687
	movs	r0, #0
	ldr	r7, [r4, #248]
	ldr	r6, [r4, #32]
	mov	r3, r0
	add	ip, r2, #1
.LVL156:
.L85:
	.loc 1 470 3 is_stmt 1 view .LVU688
	.loc 1 471 4 view .LVU689
	.loc 1 469 40 view .LVU690
	.loc 1 469 24 view .LVU691
	.loc 1 470 35 is_stmt 0 view .LVU692
	mul	r1, r3, ip
	.loc 1 470 17 view .LVU693
	add	r1, r7, r1, lsl #2
	.loc 1 470 62 view .LVU694
	add	r3, r6, r3, lsl #2
	vldr.32	s15, [r3]
	.loc 1 470 6 view .LVU695
	vldr.32	s14, [r1]
	vcmpe.f32	s14, s15
	vmrs	APSR_nzcv, FPSCR
	bpl	.L117
	.loc 1 471 37 view .LVU696
	vstr.32	s15, [r1]
	.loc 1 469 28 view .LVU697
	ldrb	r2, [r4, #12]	@ zero_extendqisi2
	.loc 1 469 40 is_stmt 1 view .LVU698
	.loc 1 469 24 view .LVU699
	adds	r0, r0, #1
.LVL157:
	.loc 1 469 24 is_stmt 0 view .LVU700
	uxtb	r3, r0
	cmp	r3, r2
	bcs	.L80
	ldr	r7, [r4, #248]
	ldr	r6, [r4, #32]
	add	ip, r2, #1
	b	.L85
.LVL158:
.L64:
	.loc 1 469 24 view .LVU701
.LBE132:
	.loc 1 431 67 discriminator 3 view .LVU702
	ldrb	r3, [r4, #309]	@ zero_extendqisi2
	cmp	r3, #0
	beq	.L65
.LBB133:
	.loc 1 434 3 is_stmt 1 view .LVU703
.LVL159:
.LBB134:
.LBI134:
	.loc 1 341 6 view .LVU704
.LBB135:
	.loc 1 343 2 view .LVU705
	.loc 1 343 5 is_stmt 0 view .LVU706
	ldrb	r3, [r4, #42]	@ zero_extendqisi2
	cmp	r3, #0
	beq	.L120
.L66:
.LVL160:
	.loc 1 343 5 view .LVU707
.LBE135:
.LBE134:
	.loc 1 436 3 is_stmt 1 view .LVU708
.LBB139:
.LBI139:
	.file 2 "/home/librgod/zephyr_workspace/zephyr/include/zephyr/kernel.h"
	.loc 2 1955 24 view .LVU709
	.loc 2 1957 2 view .LVU710
.LBB140:
.LBI140:
	.file 3 "/home/librgod/zephyr_workspace/zephyr/include/zephyr/arch/arm/misc.h"
	.loc 3 24 24 view .LVU711
.LBB141:
	.loc 3 26 2 view .LVU712
	.loc 3 26 9 is_stmt 0 view .LVU713
	bl	sys_clock_cycle_get_32
.LVL161:
.LBE141:
.LBE140:
.LBE139:
	.loc 1 436 81 view .LVU714
	adds	r0, r0, #85
	bls	.L121
.LBB142:
.LBI142:
	.loc 2 1955 24 is_stmt 1 view .LVU715
	.loc 2 1957 2 view .LVU716
.LBB143:
.LBI143:
	.loc 3 24 24 view .LVU717
.LBB144:
	.loc 3 26 2 view .LVU718
	.loc 3 26 9 is_stmt 0 view .LVU719
	bl	sys_clock_cycle_get_32
.LVL162:
.LBE144:
.LBE143:
.LBE142:
	.loc 1 436 190 view .LVU720
	adds	r3, r0, #84
	.loc 1 436 160 view .LVU721
	mov	r0, #0
	.loc 1 436 190 view .LVU722
	adc	r0, r0, #0
	.loc 1 436 67 view .LVU723
	lsrs	r5, r3, #30
	orr	r5, r5, r0, lsl #2
	bic	r1, r3, #-1073741824
	ldr	r2, .L123+4
	add	r1, r1, r5
	umull	r5, r2, r2, r1
	subs	r5, r1, r2
	add	r2, r2, r5, lsr #1
	lsrs	r2, r2, #4
	add	r2, r2, r2, lsl #1
	rsb	r2, r2, r2, lsl #3
	subs	r1, r1, r2
	ldr	r2, .L123+8
	subs	r3, r3, r1
	ldr	r1, .L123+12
	mul	r2, r3, r2
	sbc	r0, r0, #0
	mla	r2, r1, r0, r2
	umull	r3, r1, r3, r1
	add	r2, r2, r1
	lsrs	r5, r3, #3
	orr	r5, r5, r2, lsl #29
.L68:
.LVL163:
	.loc 1 437 3 is_stmt 1 discriminator 4 view .LVU724
	.loc 1 437 9 is_stmt 0 discriminator 4 view .LVU725
	ldr	r3, [r4, #216]
	.loc 1 437 6 discriminator 4 view .LVU726
	cbz	r3, .L71
	.loc 1 438 4 is_stmt 1 view .LVU727
	mov	r0, r4
	blx	r3
.LVL164:
.L71:
	.loc 1 440 3 view .LVU728
.LBB145:
.LBI145:
	.loc 2 1955 24 view .LVU729
	.loc 2 1957 2 view .LVU730
.LBB146:
.LBI146:
	.loc 3 24 24 view .LVU731
.LBB147:
	.loc 3 26 2 view .LVU732
	.loc 3 26 9 is_stmt 0 view .LVU733
	bl	sys_clock_cycle_get_32
.LVL165:
.LBE147:
.LBE146:
.LBE145:
	.loc 1 440 79 view .LVU734
	adds	r0, r0, #85
	bhi	.L72
.LBB148:
.LBI148:
	.loc 2 1955 24 is_stmt 1 view .LVU735
	.loc 2 1957 2 view .LVU736
.LBB149:
.LBI149:
	.loc 3 24 24 view .LVU737
.LBB150:
	.loc 3 26 2 view .LVU738
	.loc 3 26 9 is_stmt 0 view .LVU739
	bl	sys_clock_cycle_get_32
.LVL166:
.LBE150:
.LBE149:
.LBE148:
	.loc 1 440 65 view .LVU740
	ldr	r2, .L123+16
	.loc 1 440 98 view .LVU741
	add	r3, r0, #84
	.loc 1 440 65 view .LVU742
	lsrs	r3, r3, #3
	umull	r2, r3, r2, r3
	lsrs	r3, r3, #1
.L73:
.LVL167:
	.loc 1 441 3 is_stmt 1 discriminator 4 view .LVU743
	.loc 1 441 33 is_stmt 0 discriminator 4 view .LVU744
	subs	r3, r3, r5
.LVL168:
.LBB151:
.LBB152:
	.loc 1 367 5 discriminator 4 view .LVU745
	ldrb	r2, [r4, #43]	@ zero_extendqisi2
.LBE152:
.LBE151:
	.loc 1 441 33 discriminator 4 view .LVU746
	asrs	r1, r3, #31
	strd	r3, r1, [r4, #508]
	.loc 1 445 3 is_stmt 1 discriminator 4 view .LVU747
.LVL169:
.LBB157:
.LBI151:
	.loc 1 365 6 discriminator 4 view .LVU748
.LBB155:
	.loc 1 367 2 discriminator 4 view .LVU749
	.loc 1 367 5 is_stmt 0 discriminator 4 view .LVU750
	cmp	r2, #0
	beq	.L122
.LVL170:
.L76:
	.loc 1 367 5 discriminator 4 view .LVU751
.LBE155:
.LBE157:
	.loc 1 447 3 is_stmt 1 view .LVU752
	.loc 1 447 9 is_stmt 0 view .LVU753
	ldr	r3, [r4, #220]
	.loc 1 447 6 view .LVU754
	cbz	r3, .L77
	.loc 1 448 4 is_stmt 1 view .LVU755
	mov	r0, r4
	blx	r3
.LVL171:
.L77:
	.loc 1 453 3 view .LVU756
.LBB158:
.LBI158:
	.loc 1 385 6 view .LVU757
.LBB159:
	.loc 1 387 2 view .LVU758
	.loc 1 387 5 is_stmt 0 view .LVU759
	ldrb	r3, [r4, #44]	@ zero_extendqisi2
	cmp	r3, #0
	beq	.L116
	ldr	r5, .L123
	b	.L78
.LVL172:
.L117:
	.loc 1 387 5 view .LVU760
.LBE159:
.LBE158:
.LBE133:
.LBB172:
	.loc 1 469 24 discriminator 2 view .LVU761
	adds	r0, r0, #1
.LVL173:
	.loc 1 469 24 discriminator 2 view .LVU762
	uxtb	r3, r0
	cmp	r2, r3
	bhi	.L85
.LVL174:
.L80:
	.loc 1 469 24 discriminator 2 view .LVU763
.LBE172:
	.loc 1 475 2 is_stmt 1 view .LVU764
	.loc 1 475 56 is_stmt 0 view .LVU765
	ldrh	r3, [r5]
	.loc 1 475 2 view .LVU766
	ldr	r1, [r4, #232]
	ldr	r0, [r4]
	mul	r2, r3, r2
	bl	memcpy
.LVL175:
	.loc 1 477 2 is_stmt 1 view .LVU767
	.loc 1 477 8 is_stmt 0 view .LVU768
	ldr	r3, [r4, #228]
	.loc 1 477 5 view .LVU769
	cbz	r3, .L86
	.loc 1 478 3 is_stmt 1 view .LVU770
	mov	r0, r4
	blx	r3
.LVL176:
.L86:
	.loc 1 481 2 view .LVU771
	.loc 1 482 1 is_stmt 0 view .LVU772
	ldr	r0, [r4]
	pop	{r3, r4, r5, r6, r7, r8, r9, pc}
.LVL177:
.L60:
.LBB173:
.LBB126:
	.loc 1 324 4 is_stmt 1 view .LVU773
	.loc 1 324 20 is_stmt 0 view .LVU774
	mov	r2, r6
	bl	arm_mat_mult_f32
.LVL178:
	.loc 1 324 18 view .LVU775
	strb	r0, [r4, #200]
	b	.L59
.LVL179:
.L119:
	.loc 1 324 18 view .LVU776
.LBE126:
.LBE173:
.LBB174:
.LBB131:
.LBB129:
.LBI129:
	.loc 1 329 6 is_stmt 1 view .LVU777
.LBB130:
	.loc 1 332 3 view .LVU778
	.loc 1 332 37 is_stmt 0 view .LVU779
	add	r6, r4, #96
	.loc 1 332 19 view .LVU780
	add	r7, r4, #104
	mov	r1, r7
	mov	r0, r6
	bl	arm_mat_trans_f32
.LVL180:
	.loc 1 333 19 view .LVU781
	add	r5, r4, #88
	.loc 1 332 17 view .LVU782
	strb	r0, [r4, #200]
	.loc 1 333 3 is_stmt 1 view .LVU783
	.loc 1 333 19 is_stmt 0 view .LVU784
	mov	r2, r5
	mov	r0, r6
	add	r1, r4, #80
	bl	arm_mat_mult_f32
.LVL181:
	.loc 1 334 27 view .LVU785
	ldrh	r3, [r4, #88]
	strh	r3, [r4, #168]	@ movhi
	.loc 1 336 19 view .LVU786
	add	r6, r4, #168
	.loc 1 335 27 view .LVU787
	ldrh	r3, [r4, #106]
	.loc 1 333 17 view .LVU788
	strb	r0, [r4, #200]
	.loc 1 334 3 is_stmt 1 view .LVU789
	.loc 1 335 3 view .LVU790
	.loc 1 336 19 is_stmt 0 view .LVU791
	mov	r1, r7
	.loc 1 335 27 view .LVU792
	strh	r3, [r4, #170]	@ movhi
	.loc 1 336 3 is_stmt 1 view .LVU793
	.loc 1 336 19 is_stmt 0 view .LVU794
	mov	r2, r6
	mov	r0, r5
	bl	arm_mat_mult_f32
.LVL182:
	.loc 1 338 19 view .LVU795
	mov	r2, r5
	.loc 1 336 17 view .LVU796
	strb	r0, [r4, #200]
	.loc 1 338 3 is_stmt 1 view .LVU797
	.loc 1 338 19 is_stmt 0 view .LVU798
	add	r1, r4, #136
	mov	r0, r6
	bl	arm_mat_add_f32
.LVL183:
	.loc 1 338 17 view .LVU799
	strb	r0, [r4, #200]
	.loc 1 340 1 view .LVU800
	b	.L62
.LVL184:
.L121:
	.loc 1 340 1 view .LVU801
.LBE130:
.LBE129:
.LBE131:
.LBE174:
.LBB175:
.LBB163:
.LBI163:
	.loc 2 1955 24 is_stmt 1 view .LVU802
	.loc 2 1957 2 view .LVU803
.LBB164:
.LBI164:
	.loc 3 24 24 view .LVU804
.LBB165:
	.loc 3 26 2 view .LVU805
	.loc 3 26 9 is_stmt 0 view .LVU806
	bl	sys_clock_cycle_get_32
.LVL185:
.LBE165:
.LBE164:
.LBE163:
	.loc 1 436 67 view .LVU807
	ldr	r3, .L123+16
	.loc 1 436 100 view .LVU808
	add	r5, r0, #84
	.loc 1 436 67 view .LVU809
	lsrs	r5, r5, #3
	umull	r3, r5, r3, r5
	lsrs	r5, r5, #1
	b	.L68
.LVL186:
.L72:
.LBB166:
.LBI166:
	.loc 2 1955 24 is_stmt 1 view .LVU810
	.loc 2 1957 2 view .LVU811
.LBB167:
.LBI167:
	.loc 3 24 24 view .LVU812
.LBB168:
	.loc 3 26 2 view .LVU813
	.loc 3 26 9 is_stmt 0 view .LVU814
	bl	sys_clock_cycle_get_32
.LVL187:
.LBE168:
.LBE167:
.LBE166:
	.loc 1 440 188 view .LVU815
	adds	r3, r0, #84
	.loc 1 440 158 view .LVU816
	mov	r0, #0
	.loc 1 440 188 view .LVU817
	adc	r0, r0, #0
	.loc 1 440 65 view .LVU818
	lsrs	r2, r3, #30
	orr	r2, r2, r0, lsl #2
	bic	r1, r3, #-1073741824
	add	r1, r1, r2
	ldr	r2, .L123+4
	umull	r6, r2, r2, r1
	subs	r6, r1, r2
	add	r2, r2, r6, lsr #1
	lsrs	r2, r2, #4
	add	r2, r2, r2, lsl #1
	rsb	r2, r2, r2, lsl #3
	subs	r1, r1, r2
	ldr	r2, .L123+8
	subs	r3, r3, r1
	ldr	r1, .L123+12
	mul	r2, r3, r2
	sbc	r0, r0, #0
	mla	r2, r1, r0, r2
	umull	r3, r1, r3, r1
	add	r2, r2, r1
	lsrs	r3, r3, #3
	orr	r3, r3, r2, lsl #29
	b	.L73
.LVL188:
.L122:
.LBB169:
.LBB156:
.LBB153:
.LBI153:
	.loc 1 365 6 is_stmt 1 view .LVU819
.LBB154:
	.loc 1 368 3 view .LVU820
	.loc 1 370 19 is_stmt 0 view .LVU821
	add	r5, r4, #184
.LVL189:
	.loc 1 368 27 view .LVU822
	ldrh	r3, [r4, #120]
	strh	r3, [r4, #184]	@ movhi
	.loc 1 369 3 is_stmt 1 view .LVU823
	.loc 1 369 27 is_stmt 0 view .LVU824
	mov	r8, #1
	.loc 1 370 44 view .LVU825
	add	r6, r4, #56
	.loc 1 370 19 view .LVU826
	mov	r2, r5
	mov	r1, r6
	.loc 1 369 27 view .LVU827
	strh	r8, [r4, #186]	@ movhi
	.loc 1 370 3 is_stmt 1 view .LVU828
	.loc 1 370 19 is_stmt 0 view .LVU829
	add	r0, r4, #120
	bl	arm_mat_mult_f32
.LVL190:
	.loc 1 375 4 view .LVU830
	add	r7, r4, #192
	.loc 1 372 28 view .LVU831
	ldrh	r3, [r4, #72]
	.loc 1 370 17 view .LVU832
	strb	r0, [r4, #200]
	.loc 1 372 3 is_stmt 1 view .LVU833
	.loc 1 372 28 is_stmt 0 view .LVU834
	strh	r3, [r4, #192]	@ movhi
	.loc 1 373 3 is_stmt 1 view .LVU835
	.loc 1 375 4 is_stmt 0 view .LVU836
	mov	r2, r7
	mov	r1, r5
	.loc 1 373 28 view .LVU837
	strh	r8, [r4, #194]	@ movhi
	.loc 1 374 3 is_stmt 1 view .LVU838
	.loc 1 375 4 is_stmt 0 view .LVU839
	add	r0, r4, #72
	bl	arm_mat_sub_f32
.LVL191:
	.loc 1 377 27 view .LVU840
	ldrh	r3, [r4, #152]
	.loc 1 374 17 view .LVU841
	strb	r0, [r4, #200]
	.loc 1 377 3 is_stmt 1 view .LVU842
	.loc 1 380 4 is_stmt 0 view .LVU843
	mov	r2, r5
	mov	r1, r7
	.loc 1 377 27 view .LVU844
	strh	r3, [r4, #184]	@ movhi
	.loc 1 378 3 is_stmt 1 view .LVU845
	.loc 1 379 3 view .LVU846
	.loc 1 378 27 is_stmt 0 view .LVU847
	strh	r8, [r4, #186]	@ movhi
	.loc 1 380 4 view .LVU848
	add	r0, r4, #152
	bl	arm_mat_mult_f32
.LVL192:
	.loc 1 382 19 view .LVU849
	add	r2, r4, #48
	.loc 1 379 17 view .LVU850
	strb	r0, [r4, #200]
	.loc 1 382 3 is_stmt 1 view .LVU851
	.loc 1 382 19 is_stmt 0 view .LVU852
	mov	r1, r5
	mov	r0, r6
	bl	arm_mat_add_f32
.LVL193:
	.loc 1 382 17 view .LVU853
	strb	r0, [r4, #200]
	.loc 1 384 1 view .LVU854
	b	.L76
.LVL194:
.L120:
	.loc 1 384 1 view .LVU855
.LBE154:
.LBE153:
.LBE156:
.LBE169:
.LBB170:
.LBB138:
.LBB136:
.LBI136:
	.loc 1 341 6 is_stmt 1 view .LVU856
.LBB137:
	.loc 1 344 3 view .LVU857
	.loc 1 344 19 is_stmt 0 view .LVU858
	add	r6, r4, #128
	.loc 1 344 37 view .LVU859
	add	r7, r4, #120
	.loc 1 344 19 view .LVU860
	mov	r1, r6
	mov	r0, r7
	bl	arm_mat_trans_f32
.LVL195:
	.loc 1 345 27 view .LVU861
	ldrh	r3, [r4, #120]
	strh	r3, [r4, #168]	@ movhi
	.loc 1 347 19 view .LVU862
	add	r5, r4, #168
	.loc 1 346 27 view .LVU863
	ldrh	r3, [r4, #90]
	.loc 1 344 17 view .LVU864
	strb	r0, [r4, #200]
	.loc 1 345 3 is_stmt 1 view .LVU865
	.loc 1 346 3 view .LVU866
	.loc 1 347 44 is_stmt 0 view .LVU867
	add	r8, r4, #88
	.loc 1 347 19 view .LVU868
	mov	r0, r7
	.loc 1 346 27 view .LVU869
	strh	r3, [r4, #170]	@ movhi
	.loc 1 347 3 is_stmt 1 view .LVU870
	.loc 1 347 19 is_stmt 0 view .LVU871
	mov	r2, r5
	mov	r1, r8
	bl	arm_mat_mult_f32
.LVL196:
	.loc 1 349 28 view .LVU872
	ldrh	r3, [r4, #168]
	strh	r3, [r4, #176]	@ movhi
	.loc 1 351 19 view .LVU873
	add	r7, r4, #176
	.loc 1 350 28 view .LVU874
	ldrh	r3, [r4, #130]
	.loc 1 347 17 view .LVU875
	strb	r0, [r4, #200]
	.loc 1 349 3 is_stmt 1 view .LVU876
	.loc 1 350 3 view .LVU877
	.loc 1 350 28 is_stmt 0 view .LVU878
	strh	r3, [r4, #178]	@ movhi
	.loc 1 351 3 is_stmt 1 view .LVU879
	.loc 1 351 19 is_stmt 0 view .LVU880
	mov	r2, r7
	mov	r1, r6
	mov	r0, r5
	bl	arm_mat_mult_f32
.LVL197:
	add	r9, r4, #160
	.loc 1 353 17 view .LVU881
	ldr	r3, [r4, #144]
	str	r3, [r4, #160]
	.loc 1 355 19 view .LVU882
	mov	r2, r9
	.loc 1 351 17 view .LVU883
	strb	r0, [r4, #200]
	.loc 1 353 3 is_stmt 1 view .LVU884
	.loc 1 354 3 view .LVU885
	.loc 1 355 3 view .LVU886
	.loc 1 355 19 is_stmt 0 view .LVU887
	add	r1, r4, #144
	mov	r0, r7
	bl	arm_mat_add_f32
.LVL198:
	.loc 1 356 19 view .LVU888
	mov	r1, r7
	.loc 1 355 17 view .LVU889
	strb	r0, [r4, #200]
	.loc 1 356 3 is_stmt 1 view .LVU890
	.loc 1 356 19 is_stmt 0 view .LVU891
	mov	r0, r9
	bl	arm_mat_inverse_f32
.LVL199:
	.loc 1 358 27 view .LVU892
	ldrh	r3, [r4, #88]
	strh	r3, [r4, #168]	@ movhi
	.loc 1 359 27 view .LVU893
	ldrh	r3, [r4, #130]
	.loc 1 356 17 view .LVU894
	strb	r0, [r4, #200]
	.loc 1 358 3 is_stmt 1 view .LVU895
	.loc 1 359 3 view .LVU896
	.loc 1 360 19 is_stmt 0 view .LVU897
	mov	r1, r6
	.loc 1 359 27 view .LVU898
	strh	r3, [r4, #170]	@ movhi
	.loc 1 360 3 is_stmt 1 view .LVU899
	.loc 1 360 19 is_stmt 0 view .LVU900
	mov	r2, r5
	mov	r0, r8
	bl	arm_mat_mult_f32
.LVL200:
	.loc 1 362 19 view .LVU901
	add	r2, r4, #152
	.loc 1 360 17 view .LVU902
	strb	r0, [r4, #200]
	.loc 1 362 3 is_stmt 1 view .LVU903
	.loc 1 362 19 is_stmt 0 view .LVU904
	mov	r1, r7
	mov	r0, r5
	bl	arm_mat_mult_f32
.LVL201:
	.loc 1 362 17 view .LVU905
	strb	r0, [r4, #200]
	.loc 1 364 1 view .LVU906
	b	.L66
.L124:
	.align	2
.L123:
	.word	sizeof_float
	.word	-2045222521
	.word	-818089009
	.word	1022611261
	.word	409044505
.LVL202:
.L116:
	.loc 1 364 1 view .LVU907
.LBE137:
.LBE136:
.LBE138:
.LBE170:
.LBB171:
.LBB162:
.LBB160:
.LBI160:
	.loc 1 385 6 is_stmt 1 view .LVU908
.LBB161:
	.loc 1 388 3 view .LVU909
	.loc 1 388 34 is_stmt 0 view .LVU910
	ldrh	r3, [r4, #152]
	.loc 1 389 27 view .LVU911
	ldrh	r2, [r4, #122]
	.loc 1 391 28 view .LVU912
	ldrh	r0, [r4, #90]
	.loc 1 388 27 view .LVU913
	strh	r3, [r4, #168]	@ movhi
	.loc 1 389 3 is_stmt 1 view .LVU914
	.loc 1 393 4 is_stmt 0 view .LVU915
	add	r7, r4, #168
	.loc 1 390 28 view .LVU916
	strh	r3, [r4, #176]	@ movhi
	.loc 1 389 27 view .LVU917
	strh	r2, [r4, #170]	@ movhi
	.loc 1 390 3 is_stmt 1 view .LVU918
	.loc 1 391 3 view .LVU919
	.loc 1 393 4 is_stmt 0 view .LVU920
	add	r1, r4, #120
	mov	r2, r7
	.loc 1 391 28 view .LVU921
	strh	r0, [r4, #178]	@ movhi
	.loc 1 392 3 is_stmt 1 view .LVU922
	.loc 1 393 4 is_stmt 0 view .LVU923
	add	r0, r4, #152
	bl	arm_mat_mult_f32
.LVL203:
	.loc 1 394 54 view .LVU924
	add	r5, r4, #88
	.loc 1 394 19 view .LVU925
	add	r6, r4, #176
	mov	r1, r5
	.loc 1 392 17 view .LVU926
	strb	r0, [r4, #200]
	.loc 1 394 3 is_stmt 1 view .LVU927
	.loc 1 394 19 is_stmt 0 view .LVU928
	mov	r2, r6
	mov	r0, r7
	bl	arm_mat_mult_f32
.LVL204:
	.loc 1 396 19 view .LVU929
	add	r2, r4, #80
	.loc 1 394 17 view .LVU930
	strb	r0, [r4, #200]
	.loc 1 396 3 is_stmt 1 view .LVU931
	.loc 1 396 19 is_stmt 0 view .LVU932
	mov	r1, r6
	mov	r0, r5
	bl	arm_mat_sub_f32
.LVL205:
	ldr	r5, .L125
	.loc 1 396 17 view .LVU933
	strb	r0, [r4, #200]
	.loc 1 398 1 view .LVU934
	b	.L78
.L126:
	.align	2
.L125:
	.word	sizeof_float
.LBE161:
.LBE160:
.LBE162:
.LBE171:
.LBE175:
	.cfi_endproc
.LFE702:
	.size	Kalman_Filter_Update, .-Kalman_Filter_Update
	.global	sizeof_double
	.section	.bss.sizeof_double,"aw",%nobits
	.align	1
	.type	sizeof_double, %object
	.size	sizeof_double, 2
sizeof_double:
	.space	2
	.global	sizeof_float
	.section	.bss.sizeof_float,"aw",%nobits
	.align	1
	.type	sizeof_float, %object
	.size	sizeof_float, 2
sizeof_float:
	.space	2
	.text
.Letext0:
	.file 4 "/home/librgod/zephyr-sdk-0.17.0/arm-zephyr-eabi/picolibc/include/machine/_default_types.h"
	.file 5 "/home/librgod/zephyr-sdk-0.17.0/arm-zephyr-eabi/picolibc/include/sys/_stdint.h"
	.file 6 "/home/librgod/zephyr-sdk-0.17.0/arm-zephyr-eabi/lib/gcc/arm-zephyr-eabi/12.2.0/include/stddef.h"
	.file 7 "/home/librgod/zephyr_workspace/modules/lib/cmsis-dsp/Include/arm_math_types.h"
	.file 8 "/home/librgod/zephyr_workspace/modules/lib/cmsis-dsp/Include/dsp/matrix_functions.h"
	.file 9 "/home/librgod/zephyr_workspace/motor/include/ares/ekf/kalman_filter.h"
	.file 10 "/home/librgod/zephyr_workspace/zephyr/include/zephyr/fatal_types.h"
	.file 11 "/home/librgod/zephyr_workspace/motor/include/ares/ekf/QuaternionEKF.h"
	.file 12 "/home/librgod/zephyr-sdk-0.17.0/arm-zephyr-eabi/picolibc/include/string.h"
	.file 13 "/home/librgod/zephyr-sdk-0.17.0/arm-zephyr-eabi/picolibc/include/stdlib.h"